
mcpi_testing_firmware.elf:     file format elf32-littlearm

Sections:
Idx Name          Size      VMA       LMA       File off  Algn
  0 .isr_vector   00000188  08000000  08000000  00010000  2**0
                  CONTENTS, ALLOC, LOAD, READONLY, DATA
  1 .text         000037c0  08000190  08000190  00010190  2**4
                  CONTENTS, ALLOC, LOAD, READONLY, CODE
  2 .rodata       00000060  08003950  08003950  00013950  2**2
                  CONTENTS, ALLOC, LOAD, READONLY, DATA
  3 .ARM.extab    00000000  080039b0  080039b0  0002005c  2**0
                  CONTENTS
  4 .ARM          00000008  080039b0  080039b0  000139b0  2**2
                  CONTENTS, ALLOC, LOAD, READONLY, DATA
  5 .preinit_array 00000000  080039b8  080039b8  0002005c  2**0
                  CONTENTS, ALLOC, LOAD, DATA
  6 .init_array   00000004  080039b8  080039b8  000139b8  2**2
                  CONTENTS, ALLOC, LOAD, DATA
  7 .fini_array   00000004  080039bc  080039bc  000139bc  2**2
                  CONTENTS, ALLOC, LOAD, DATA
  8 .data         0000005c  20000000  080039c0  00020000  2**2
                  CONTENTS, ALLOC, LOAD, DATA
  9 .ccmram       00000000  10000000  10000000  0002005c  2**0
                  CONTENTS
 10 .bss          0000020c  2000005c  2000005c  0002005c  2**2
                  ALLOC
 11 ._user_heap_stack 00000600  20000268  20000268  0002005c  2**0
                  ALLOC
 12 .ARM.attributes 00000030  00000000  00000000  0002005c  2**0
                  CONTENTS, READONLY
 13 .comment      00000043  00000000  00000000  0002008c  2**0
                  CONTENTS, READONLY
 14 .debug_info   00009265  00000000  00000000  000200cf  2**0
                  CONTENTS, READONLY, DEBUGGING, OCTETS
 15 .debug_abbrev 00001698  00000000  00000000  00029334  2**0
                  CONTENTS, READONLY, DEBUGGING, OCTETS
 16 .debug_aranges 00000848  00000000  00000000  0002a9d0  2**3
                  CONTENTS, READONLY, DEBUGGING, OCTETS
 17 .debug_rnglists 0000065c  00000000  00000000  0002b218  2**0
                  CONTENTS, READONLY, DEBUGGING, OCTETS
 18 .debug_macro  00020490  00000000  00000000  0002b874  2**0
                  CONTENTS, READONLY, DEBUGGING, OCTETS
 19 .debug_line   000097e9  00000000  00000000  0004bd04  2**0
                  CONTENTS, READONLY, DEBUGGING, OCTETS
 20 .debug_str    000c4169  00000000  00000000  000554ed  2**0
                  CONTENTS, READONLY, DEBUGGING, OCTETS
 21 .debug_frame  00002694  00000000  00000000  00119658  2**2
                  CONTENTS, READONLY, DEBUGGING, OCTETS
 22 .debug_line_str 00000070  00000000  00000000  0011bcec  2**0
                  CONTENTS, READONLY, DEBUGGING, OCTETS

Disassembly of section .text:

08000190 <__do_global_dtors_aux>:
 8000190:	b510      	push	{r4, lr}
 8000192:	4c05      	ldr	r4, [pc, #20]	; (80001a8 <__do_global_dtors_aux+0x18>)
 8000194:	7823      	ldrb	r3, [r4, #0]
 8000196:	b933      	cbnz	r3, 80001a6 <__do_global_dtors_aux+0x16>
 8000198:	4b04      	ldr	r3, [pc, #16]	; (80001ac <__do_global_dtors_aux+0x1c>)
 800019a:	b113      	cbz	r3, 80001a2 <__do_global_dtors_aux+0x12>
 800019c:	4804      	ldr	r0, [pc, #16]	; (80001b0 <__do_global_dtors_aux+0x20>)
 800019e:	f3af 8000 	nop.w
 80001a2:	2301      	movs	r3, #1
 80001a4:	7023      	strb	r3, [r4, #0]
 80001a6:	bd10      	pop	{r4, pc}
 80001a8:	2000005c 	.word	0x2000005c
 80001ac:	00000000 	.word	0x00000000
 80001b0:	08003938 	.word	0x08003938

080001b4 <frame_dummy>:
 80001b4:	b508      	push	{r3, lr}
 80001b6:	4b03      	ldr	r3, [pc, #12]	; (80001c4 <frame_dummy+0x10>)
 80001b8:	b11b      	cbz	r3, 80001c2 <frame_dummy+0xe>
 80001ba:	4903      	ldr	r1, [pc, #12]	; (80001c8 <frame_dummy+0x14>)
 80001bc:	4803      	ldr	r0, [pc, #12]	; (80001cc <frame_dummy+0x18>)
 80001be:	f3af 8000 	nop.w
 80001c2:	bd08      	pop	{r3, pc}
 80001c4:	00000000 	.word	0x00000000
 80001c8:	20000060 	.word	0x20000060
 80001cc:	08003938 	.word	0x08003938

080001d0 <strlen>:
 80001d0:	4603      	mov	r3, r0
 80001d2:	f813 2b01 	ldrb.w	r2, [r3], #1
 80001d6:	2a00      	cmp	r2, #0
 80001d8:	d1fb      	bne.n	80001d2 <strlen+0x2>
 80001da:	1a18      	subs	r0, r3, r0
 80001dc:	3801      	subs	r0, #1
 80001de:	4770      	bx	lr

080001e0 <memchr>:
 80001e0:	f001 01ff 	and.w	r1, r1, #255	; 0xff
 80001e4:	2a10      	cmp	r2, #16
 80001e6:	db2b      	blt.n	8000240 <memchr+0x60>
 80001e8:	f010 0f07 	tst.w	r0, #7
 80001ec:	d008      	beq.n	8000200 <memchr+0x20>
 80001ee:	f810 3b01 	ldrb.w	r3, [r0], #1
 80001f2:	3a01      	subs	r2, #1
 80001f4:	428b      	cmp	r3, r1
 80001f6:	d02d      	beq.n	8000254 <memchr+0x74>
 80001f8:	f010 0f07 	tst.w	r0, #7
 80001fc:	b342      	cbz	r2, 8000250 <memchr+0x70>
 80001fe:	d1f6      	bne.n	80001ee <memchr+0xe>
 8000200:	b4f0      	push	{r4, r5, r6, r7}
 8000202:	ea41 2101 	orr.w	r1, r1, r1, lsl #8
 8000206:	ea41 4101 	orr.w	r1, r1, r1, lsl #16
 800020a:	f022 0407 	bic.w	r4, r2, #7
 800020e:	f07f 0700 	mvns.w	r7, #0
 8000212:	2300      	movs	r3, #0
 8000214:	e8f0 5602 	ldrd	r5, r6, [r0], #8
 8000218:	3c08      	subs	r4, #8
 800021a:	ea85 0501 	eor.w	r5, r5, r1
 800021e:	ea86 0601 	eor.w	r6, r6, r1
 8000222:	fa85 f547 	uadd8	r5, r5, r7
 8000226:	faa3 f587 	sel	r5, r3, r7
 800022a:	fa86 f647 	uadd8	r6, r6, r7
 800022e:	faa5 f687 	sel	r6, r5, r7
 8000232:	b98e      	cbnz	r6, 8000258 <memchr+0x78>
 8000234:	d1ee      	bne.n	8000214 <memchr+0x34>
 8000236:	bcf0      	pop	{r4, r5, r6, r7}
 8000238:	f001 01ff 	and.w	r1, r1, #255	; 0xff
 800023c:	f002 0207 	and.w	r2, r2, #7
 8000240:	b132      	cbz	r2, 8000250 <memchr+0x70>
 8000242:	f810 3b01 	ldrb.w	r3, [r0], #1
 8000246:	3a01      	subs	r2, #1
 8000248:	ea83 0301 	eor.w	r3, r3, r1
 800024c:	b113      	cbz	r3, 8000254 <memchr+0x74>
 800024e:	d1f8      	bne.n	8000242 <memchr+0x62>
 8000250:	2000      	movs	r0, #0
 8000252:	4770      	bx	lr
 8000254:	3801      	subs	r0, #1
 8000256:	4770      	bx	lr
 8000258:	2d00      	cmp	r5, #0
 800025a:	bf06      	itte	eq
 800025c:	4635      	moveq	r5, r6
 800025e:	3803      	subeq	r0, #3
 8000260:	3807      	subne	r0, #7
 8000262:	f015 0f01 	tst.w	r5, #1
 8000266:	d107      	bne.n	8000278 <memchr+0x98>
 8000268:	3001      	adds	r0, #1
 800026a:	f415 7f80 	tst.w	r5, #256	; 0x100
 800026e:	bf02      	ittt	eq
 8000270:	3001      	addeq	r0, #1
 8000272:	f415 3fc0 	tsteq.w	r5, #98304	; 0x18000
 8000276:	3001      	addeq	r0, #1
 8000278:	bcf0      	pop	{r4, r5, r6, r7}
 800027a:	3801      	subs	r0, #1
 800027c:	4770      	bx	lr
 800027e:	bf00      	nop

08000280 <__aeabi_uldivmod>:
 8000280:	b953      	cbnz	r3, 8000298 <__aeabi_uldivmod+0x18>
 8000282:	b94a      	cbnz	r2, 8000298 <__aeabi_uldivmod+0x18>
 8000284:	2900      	cmp	r1, #0
 8000286:	bf08      	it	eq
 8000288:	2800      	cmpeq	r0, #0
 800028a:	bf1c      	itt	ne
 800028c:	f04f 31ff 	movne.w	r1, #4294967295	; 0xffffffff
 8000290:	f04f 30ff 	movne.w	r0, #4294967295	; 0xffffffff
 8000294:	f000 b970 	b.w	8000578 <__aeabi_idiv0>
 8000298:	f1ad 0c08 	sub.w	ip, sp, #8
 800029c:	e96d ce04 	strd	ip, lr, [sp, #-16]!
 80002a0:	f000 f806 	bl	80002b0 <__udivmoddi4>
 80002a4:	f8dd e004 	ldr.w	lr, [sp, #4]
 80002a8:	e9dd 2302 	ldrd	r2, r3, [sp, #8]
 80002ac:	b004      	add	sp, #16
 80002ae:	4770      	bx	lr

080002b0 <__udivmoddi4>:
 80002b0:	e92d 47f0 	stmdb	sp!, {r4, r5, r6, r7, r8, r9, sl, lr}
 80002b4:	9e08      	ldr	r6, [sp, #32]
 80002b6:	460d      	mov	r5, r1
 80002b8:	4604      	mov	r4, r0
 80002ba:	460f      	mov	r7, r1
 80002bc:	2b00      	cmp	r3, #0
 80002be:	d14a      	bne.n	8000356 <__udivmoddi4+0xa6>
 80002c0:	428a      	cmp	r2, r1
 80002c2:	4694      	mov	ip, r2
 80002c4:	d965      	bls.n	8000392 <__udivmoddi4+0xe2>
 80002c6:	fab2 f382 	clz	r3, r2
 80002ca:	b143      	cbz	r3, 80002de <__udivmoddi4+0x2e>
 80002cc:	fa02 fc03 	lsl.w	ip, r2, r3
 80002d0:	f1c3 0220 	rsb	r2, r3, #32
 80002d4:	409f      	lsls	r7, r3
 80002d6:	fa20 f202 	lsr.w	r2, r0, r2
 80002da:	4317      	orrs	r7, r2
 80002dc:	409c      	lsls	r4, r3
 80002de:	ea4f 4e1c 	mov.w	lr, ip, lsr #16
 80002e2:	fa1f f58c 	uxth.w	r5, ip
 80002e6:	fbb7 f1fe 	udiv	r1, r7, lr
 80002ea:	0c22      	lsrs	r2, r4, #16
 80002ec:	fb0e 7711 	mls	r7, lr, r1, r7
 80002f0:	ea42 4207 	orr.w	r2, r2, r7, lsl #16
 80002f4:	fb01 f005 	mul.w	r0, r1, r5
 80002f8:	4290      	cmp	r0, r2
 80002fa:	d90a      	bls.n	8000312 <__udivmoddi4+0x62>
 80002fc:	eb1c 0202 	adds.w	r2, ip, r2
 8000300:	f101 37ff 	add.w	r7, r1, #4294967295	; 0xffffffff
 8000304:	f080 811c 	bcs.w	8000540 <__udivmoddi4+0x290>
 8000308:	4290      	cmp	r0, r2
 800030a:	f240 8119 	bls.w	8000540 <__udivmoddi4+0x290>
 800030e:	3902      	subs	r1, #2
 8000310:	4462      	add	r2, ip
 8000312:	1a12      	subs	r2, r2, r0
 8000314:	b2a4      	uxth	r4, r4
 8000316:	fbb2 f0fe 	udiv	r0, r2, lr
 800031a:	fb0e 2210 	mls	r2, lr, r0, r2
 800031e:	ea44 4402 	orr.w	r4, r4, r2, lsl #16
 8000322:	fb00 f505 	mul.w	r5, r0, r5
 8000326:	42a5      	cmp	r5, r4
 8000328:	d90a      	bls.n	8000340 <__udivmoddi4+0x90>
 800032a:	eb1c 0404 	adds.w	r4, ip, r4
 800032e:	f100 32ff 	add.w	r2, r0, #4294967295	; 0xffffffff
 8000332:	f080 8107 	bcs.w	8000544 <__udivmoddi4+0x294>
 8000336:	42a5      	cmp	r5, r4
 8000338:	f240 8104 	bls.w	8000544 <__udivmoddi4+0x294>
 800033c:	4464      	add	r4, ip
 800033e:	3802      	subs	r0, #2
 8000340:	ea40 4001 	orr.w	r0, r0, r1, lsl #16
 8000344:	1b64      	subs	r4, r4, r5
 8000346:	2100      	movs	r1, #0
 8000348:	b11e      	cbz	r6, 8000352 <__udivmoddi4+0xa2>
 800034a:	40dc      	lsrs	r4, r3
 800034c:	2300      	movs	r3, #0
 800034e:	e9c6 4300 	strd	r4, r3, [r6]
 8000352:	e8bd 87f0 	ldmia.w	sp!, {r4, r5, r6, r7, r8, r9, sl, pc}
 8000356:	428b      	cmp	r3, r1
 8000358:	d908      	bls.n	800036c <__udivmoddi4+0xbc>
 800035a:	2e00      	cmp	r6, #0
 800035c:	f000 80ed 	beq.w	800053a <__udivmoddi4+0x28a>
 8000360:	2100      	movs	r1, #0
 8000362:	e9c6 0500 	strd	r0, r5, [r6]
 8000366:	4608      	mov	r0, r1
 8000368:	e8bd 87f0 	ldmia.w	sp!, {r4, r5, r6, r7, r8, r9, sl, pc}
 800036c:	fab3 f183 	clz	r1, r3
 8000370:	2900      	cmp	r1, #0
 8000372:	d149      	bne.n	8000408 <__udivmoddi4+0x158>
 8000374:	42ab      	cmp	r3, r5
 8000376:	d302      	bcc.n	800037e <__udivmoddi4+0xce>
 8000378:	4282      	cmp	r2, r0
 800037a:	f200 80f8 	bhi.w	800056e <__udivmoddi4+0x2be>
 800037e:	1a84      	subs	r4, r0, r2
 8000380:	eb65 0203 	sbc.w	r2, r5, r3
 8000384:	2001      	movs	r0, #1
 8000386:	4617      	mov	r7, r2
 8000388:	2e00      	cmp	r6, #0
 800038a:	d0e2      	beq.n	8000352 <__udivmoddi4+0xa2>
 800038c:	e9c6 4700 	strd	r4, r7, [r6]
 8000390:	e7df      	b.n	8000352 <__udivmoddi4+0xa2>
 8000392:	b902      	cbnz	r2, 8000396 <__udivmoddi4+0xe6>
 8000394:	deff      	udf	#255	; 0xff
 8000396:	fab2 f382 	clz	r3, r2
 800039a:	2b00      	cmp	r3, #0
 800039c:	f040 8090 	bne.w	80004c0 <__udivmoddi4+0x210>
 80003a0:	1a8a      	subs	r2, r1, r2
 80003a2:	ea4f 471c 	mov.w	r7, ip, lsr #16
 80003a6:	fa1f fe8c 	uxth.w	lr, ip
 80003aa:	2101      	movs	r1, #1
 80003ac:	fbb2 f5f7 	udiv	r5, r2, r7
 80003b0:	fb07 2015 	mls	r0, r7, r5, r2
 80003b4:	0c22      	lsrs	r2, r4, #16
 80003b6:	ea42 4200 	orr.w	r2, r2, r0, lsl #16
 80003ba:	fb0e f005 	mul.w	r0, lr, r5
 80003be:	4290      	cmp	r0, r2
 80003c0:	d908      	bls.n	80003d4 <__udivmoddi4+0x124>
 80003c2:	eb1c 0202 	adds.w	r2, ip, r2
 80003c6:	f105 38ff 	add.w	r8, r5, #4294967295	; 0xffffffff
 80003ca:	d202      	bcs.n	80003d2 <__udivmoddi4+0x122>
 80003cc:	4290      	cmp	r0, r2
 80003ce:	f200 80cb 	bhi.w	8000568 <__udivmoddi4+0x2b8>
 80003d2:	4645      	mov	r5, r8
 80003d4:	1a12      	subs	r2, r2, r0
 80003d6:	b2a4      	uxth	r4, r4
 80003d8:	fbb2 f0f7 	udiv	r0, r2, r7
 80003dc:	fb07 2210 	mls	r2, r7, r0, r2
 80003e0:	ea44 4402 	orr.w	r4, r4, r2, lsl #16
 80003e4:	fb0e fe00 	mul.w	lr, lr, r0
 80003e8:	45a6      	cmp	lr, r4
 80003ea:	d908      	bls.n	80003fe <__udivmoddi4+0x14e>
 80003ec:	eb1c 0404 	adds.w	r4, ip, r4
 80003f0:	f100 32ff 	add.w	r2, r0, #4294967295	; 0xffffffff
 80003f4:	d202      	bcs.n	80003fc <__udivmoddi4+0x14c>
 80003f6:	45a6      	cmp	lr, r4
 80003f8:	f200 80bb 	bhi.w	8000572 <__udivmoddi4+0x2c2>
 80003fc:	4610      	mov	r0, r2
 80003fe:	eba4 040e 	sub.w	r4, r4, lr
 8000402:	ea40 4005 	orr.w	r0, r0, r5, lsl #16
 8000406:	e79f      	b.n	8000348 <__udivmoddi4+0x98>
 8000408:	f1c1 0720 	rsb	r7, r1, #32
 800040c:	408b      	lsls	r3, r1
 800040e:	fa22 fc07 	lsr.w	ip, r2, r7
 8000412:	ea4c 0c03 	orr.w	ip, ip, r3
 8000416:	fa05 f401 	lsl.w	r4, r5, r1
 800041a:	fa20 f307 	lsr.w	r3, r0, r7
 800041e:	40fd      	lsrs	r5, r7
 8000420:	ea4f 491c 	mov.w	r9, ip, lsr #16
 8000424:	4323      	orrs	r3, r4
 8000426:	fbb5 f8f9 	udiv	r8, r5, r9
 800042a:	fa1f fe8c 	uxth.w	lr, ip
 800042e:	fb09 5518 	mls	r5, r9, r8, r5
 8000432:	0c1c      	lsrs	r4, r3, #16
 8000434:	ea44 4405 	orr.w	r4, r4, r5, lsl #16
 8000438:	fb08 f50e 	mul.w	r5, r8, lr
 800043c:	42a5      	cmp	r5, r4
 800043e:	fa02 f201 	lsl.w	r2, r2, r1
 8000442:	fa00 f001 	lsl.w	r0, r0, r1
 8000446:	d90b      	bls.n	8000460 <__udivmoddi4+0x1b0>
 8000448:	eb1c 0404 	adds.w	r4, ip, r4
 800044c:	f108 3aff 	add.w	sl, r8, #4294967295	; 0xffffffff
 8000450:	f080 8088 	bcs.w	8000564 <__udivmoddi4+0x2b4>
 8000454:	42a5      	cmp	r5, r4
 8000456:	f240 8085 	bls.w	8000564 <__udivmoddi4+0x2b4>
 800045a:	f1a8 0802 	sub.w	r8, r8, #2
 800045e:	4464      	add	r4, ip
 8000460:	1b64      	subs	r4, r4, r5
 8000462:	b29d      	uxth	r5, r3
 8000464:	fbb4 f3f9 	udiv	r3, r4, r9
 8000468:	fb09 4413 	mls	r4, r9, r3, r4
 800046c:	ea45 4404 	orr.w	r4, r5, r4, lsl #16
 8000470:	fb03 fe0e 	mul.w	lr, r3, lr
 8000474:	45a6      	cmp	lr, r4
 8000476:	d908      	bls.n	800048a <__udivmoddi4+0x1da>
 8000478:	eb1c 0404 	adds.w	r4, ip, r4
 800047c:	f103 35ff 	add.w	r5, r3, #4294967295	; 0xffffffff
 8000480:	d26c      	bcs.n	800055c <__udivmoddi4+0x2ac>
 8000482:	45a6      	cmp	lr, r4
 8000484:	d96a      	bls.n	800055c <__udivmoddi4+0x2ac>
 8000486:	3b02      	subs	r3, #2
 8000488:	4464      	add	r4, ip
 800048a:	ea43 4308 	orr.w	r3, r3, r8, lsl #16
 800048e:	fba3 9502 	umull	r9, r5, r3, r2
 8000492:	eba4 040e 	sub.w	r4, r4, lr
 8000496:	42ac      	cmp	r4, r5
 8000498:	46c8      	mov	r8, r9
 800049a:	46ae      	mov	lr, r5
 800049c:	d356      	bcc.n	800054c <__udivmoddi4+0x29c>
 800049e:	d053      	beq.n	8000548 <__udivmoddi4+0x298>
 80004a0:	b156      	cbz	r6, 80004b8 <__udivmoddi4+0x208>
 80004a2:	ebb0 0208 	subs.w	r2, r0, r8
 80004a6:	eb64 040e 	sbc.w	r4, r4, lr
 80004aa:	fa04 f707 	lsl.w	r7, r4, r7
 80004ae:	40ca      	lsrs	r2, r1
 80004b0:	40cc      	lsrs	r4, r1
 80004b2:	4317      	orrs	r7, r2
 80004b4:	e9c6 7400 	strd	r7, r4, [r6]
 80004b8:	4618      	mov	r0, r3
 80004ba:	2100      	movs	r1, #0
 80004bc:	e8bd 87f0 	ldmia.w	sp!, {r4, r5, r6, r7, r8, r9, sl, pc}
 80004c0:	f1c3 0120 	rsb	r1, r3, #32
 80004c4:	fa02 fc03 	lsl.w	ip, r2, r3
 80004c8:	fa20 f201 	lsr.w	r2, r0, r1
 80004cc:	fa25 f101 	lsr.w	r1, r5, r1
 80004d0:	409d      	lsls	r5, r3
 80004d2:	432a      	orrs	r2, r5
 80004d4:	ea4f 471c 	mov.w	r7, ip, lsr #16
 80004d8:	fa1f fe8c 	uxth.w	lr, ip
 80004dc:	fbb1 f0f7 	udiv	r0, r1, r7
 80004e0:	fb07 1510 	mls	r5, r7, r0, r1
 80004e4:	0c11      	lsrs	r1, r2, #16
 80004e6:	ea41 4105 	orr.w	r1, r1, r5, lsl #16
 80004ea:	fb00 f50e 	mul.w	r5, r0, lr
 80004ee:	428d      	cmp	r5, r1
 80004f0:	fa04 f403 	lsl.w	r4, r4, r3
 80004f4:	d908      	bls.n	8000508 <__udivmoddi4+0x258>
 80004f6:	eb1c 0101 	adds.w	r1, ip, r1
 80004fa:	f100 38ff 	add.w	r8, r0, #4294967295	; 0xffffffff
 80004fe:	d22f      	bcs.n	8000560 <__udivmoddi4+0x2b0>
 8000500:	428d      	cmp	r5, r1
 8000502:	d92d      	bls.n	8000560 <__udivmoddi4+0x2b0>
 8000504:	3802      	subs	r0, #2
 8000506:	4461      	add	r1, ip
 8000508:	1b49      	subs	r1, r1, r5
 800050a:	b292      	uxth	r2, r2
 800050c:	fbb1 f5f7 	udiv	r5, r1, r7
 8000510:	fb07 1115 	mls	r1, r7, r5, r1
 8000514:	ea42 4201 	orr.w	r2, r2, r1, lsl #16
 8000518:	fb05 f10e 	mul.w	r1, r5, lr
 800051c:	4291      	cmp	r1, r2
 800051e:	d908      	bls.n	8000532 <__udivmoddi4+0x282>
 8000520:	eb1c 0202 	adds.w	r2, ip, r2
 8000524:	f105 38ff 	add.w	r8, r5, #4294967295	; 0xffffffff
 8000528:	d216      	bcs.n	8000558 <__udivmoddi4+0x2a8>
 800052a:	4291      	cmp	r1, r2
 800052c:	d914      	bls.n	8000558 <__udivmoddi4+0x2a8>
 800052e:	3d02      	subs	r5, #2
 8000530:	4462      	add	r2, ip
 8000532:	1a52      	subs	r2, r2, r1
 8000534:	ea45 4100 	orr.w	r1, r5, r0, lsl #16
 8000538:	e738      	b.n	80003ac <__udivmoddi4+0xfc>
 800053a:	4631      	mov	r1, r6
 800053c:	4630      	mov	r0, r6
 800053e:	e708      	b.n	8000352 <__udivmoddi4+0xa2>
 8000540:	4639      	mov	r1, r7
 8000542:	e6e6      	b.n	8000312 <__udivmoddi4+0x62>
 8000544:	4610      	mov	r0, r2
 8000546:	e6fb      	b.n	8000340 <__udivmoddi4+0x90>
 8000548:	4548      	cmp	r0, r9
 800054a:	d2a9      	bcs.n	80004a0 <__udivmoddi4+0x1f0>
 800054c:	ebb9 0802 	subs.w	r8, r9, r2
 8000550:	eb65 0e0c 	sbc.w	lr, r5, ip
 8000554:	3b01      	subs	r3, #1
 8000556:	e7a3      	b.n	80004a0 <__udivmoddi4+0x1f0>
 8000558:	4645      	mov	r5, r8
 800055a:	e7ea      	b.n	8000532 <__udivmoddi4+0x282>
 800055c:	462b      	mov	r3, r5
 800055e:	e794      	b.n	800048a <__udivmoddi4+0x1da>
 8000560:	4640      	mov	r0, r8
 8000562:	e7d1      	b.n	8000508 <__udivmoddi4+0x258>
 8000564:	46d0      	mov	r8, sl
 8000566:	e77b      	b.n	8000460 <__udivmoddi4+0x1b0>
 8000568:	3d02      	subs	r5, #2
 800056a:	4462      	add	r2, ip
 800056c:	e732      	b.n	80003d4 <__udivmoddi4+0x124>
 800056e:	4608      	mov	r0, r1
 8000570:	e70a      	b.n	8000388 <__udivmoddi4+0xd8>
 8000572:	4464      	add	r4, ip
 8000574:	3802      	subs	r0, #2
 8000576:	e742      	b.n	80003fe <__udivmoddi4+0x14e>

08000578 <__aeabi_idiv0>:
 8000578:	4770      	bx	lr
 800057a:	bf00      	nop

0800057c <SPI_Write>:

/* USER CODE END PFP */

/* Private user code ---------------------------------------------------------*/
/* USER CODE BEGIN 0 */
void SPI_Write(uint8_t reg, uint8_t *data, uint8_t size) {
 800057c:	b580      	push	{r7, lr}
 800057e:	b082      	sub	sp, #8
 8000580:	af00      	add	r7, sp, #0
 8000582:	4603      	mov	r3, r0
 8000584:	6039      	str	r1, [r7, #0]
 8000586:	71fb      	strb	r3, [r7, #7]
 8000588:	4613      	mov	r3, r2
 800058a:	71bb      	strb	r3, [r7, #6]
	// Enable CS (PE3=0)
	HAL_GPIO_WritePin(GPIOE, GPIO_PIN_3, GPIO_PIN_RESET);
 800058c:	2200      	movs	r2, #0
 800058e:	2108      	movs	r1, #8
 8000590:	480d      	ldr	r0, [pc, #52]	; (80005c8 <SPI_Write+0x4c>)
 8000592:	f000 fef9 	bl	8001388 <HAL_GPIO_WritePin>
	// Send register (internal) address
	HAL_SPI_Transmit(&hspi1, &reg, 1, HAL_MAX_DELAY);
 8000596:	1df9      	adds	r1, r7, #7
 8000598:	f04f 33ff 	mov.w	r3, #4294967295	; 0xffffffff
 800059c:	2201      	movs	r2, #1
 800059e:	480b      	ldr	r0, [pc, #44]	; (80005cc <SPI_Write+0x50>)
 80005a0:	f001 fc45 	bl	8001e2e <HAL_SPI_Transmit>
	// Send data of given size
	HAL_SPI_Transmit(&hspi1, data, size, HAL_MAX_DELAY);
 80005a4:	79bb      	ldrb	r3, [r7, #6]
 80005a6:	b29a      	uxth	r2, r3
 80005a8:	f04f 33ff 	mov.w	r3, #4294967295	; 0xffffffff
 80005ac:	6839      	ldr	r1, [r7, #0]
 80005ae:	4807      	ldr	r0, [pc, #28]	; (80005cc <SPI_Write+0x50>)
 80005b0:	f001 fc3d 	bl	8001e2e <HAL_SPI_Transmit>
	// Disable CS (PE3=1)
	HAL_GPIO_WritePin(GPIOE, GPIO_PIN_3, GPIO_PIN_SET);
 80005b4:	2201      	movs	r2, #1
 80005b6:	2108      	movs	r1, #8
 80005b8:	4803      	ldr	r0, [pc, #12]	; (80005c8 <SPI_Write+0x4c>)
 80005ba:	f000 fee5 	bl	8001388 <HAL_GPIO_WritePin>
}
 80005be:	bf00      	nop
 80005c0:	3708      	adds	r7, #8
 80005c2:	46bd      	mov	sp, r7
 80005c4:	bd80      	pop	{r7, pc}
 80005c6:	bf00      	nop
 80005c8:	40021000 	.word	0x40021000
 80005cc:	20000078 	.word	0x20000078

080005d0 <SPI_Read>:

void SPI_Read(uint8_t reg, uint8_t *data, int size) {
 80005d0:	b580      	push	{r7, lr}
 80005d2:	b084      	sub	sp, #16
 80005d4:	af00      	add	r7, sp, #0
 80005d6:	4603      	mov	r3, r0
 80005d8:	60b9      	str	r1, [r7, #8]
 80005da:	607a      	str	r2, [r7, #4]
 80005dc:	73fb      	strb	r3, [r7, #15]
	// Enable CS (PE3=0)
	HAL_GPIO_WritePin(GPIOE, GPIO_PIN_3, GPIO_PIN_RESET);
 80005de:	2200      	movs	r2, #0
 80005e0:	2108      	movs	r1, #8
 80005e2:	4810      	ldr	r0, [pc, #64]	; (8000624 <SPI_Read+0x54>)
 80005e4:	f000 fed0 	bl	8001388 <HAL_GPIO_WritePin>
	// Send register (internal) address (msb=1 for read op with LIS3DSH)
	reg |= BV(7);
 80005e8:	7bfb      	ldrb	r3, [r7, #15]
 80005ea:	f063 037f 	orn	r3, r3, #127	; 0x7f
 80005ee:	b2db      	uxtb	r3, r3
 80005f0:	73fb      	strb	r3, [r7, #15]
	HAL_SPI_Transmit(&hspi1, &reg, 1, HAL_MAX_DELAY);
 80005f2:	f107 010f 	add.w	r1, r7, #15
 80005f6:	f04f 33ff 	mov.w	r3, #4294967295	; 0xffffffff
 80005fa:	2201      	movs	r2, #1
 80005fc:	480a      	ldr	r0, [pc, #40]	; (8000628 <SPI_Read+0x58>)
 80005fe:	f001 fc16 	bl	8001e2e <HAL_SPI_Transmit>
	// Receive data of given size
	HAL_SPI_Receive(&hspi1, data, size, HAL_MAX_DELAY);
 8000602:	687b      	ldr	r3, [r7, #4]
 8000604:	b29a      	uxth	r2, r3
 8000606:	f04f 33ff 	mov.w	r3, #4294967295	; 0xffffffff
 800060a:	68b9      	ldr	r1, [r7, #8]
 800060c:	4806      	ldr	r0, [pc, #24]	; (8000628 <SPI_Read+0x58>)
 800060e:	f001 fd4a 	bl	80020a6 <HAL_SPI_Receive>
	// Disable CS (PE3=1)
	HAL_GPIO_WritePin(GPIOE, GPIO_PIN_3, GPIO_PIN_SET);
 8000612:	2201      	movs	r2, #1
 8000614:	2108      	movs	r1, #8
 8000616:	4803      	ldr	r0, [pc, #12]	; (8000624 <SPI_Read+0x54>)
 8000618:	f000 feb6 	bl	8001388 <HAL_GPIO_WritePin>
}
 800061c:	bf00      	nop
 800061e:	3710      	adds	r7, #16
 8000620:	46bd      	mov	sp, r7
 8000622:	bd80      	pop	{r7, pc}
 8000624:	40021000 	.word	0x40021000
 8000628:	20000078 	.word	0x20000078

0800062c <LIS3DSH_Init>:
void LIS3DSH_Init(void) {
 800062c:	b580      	push	{r7, lr}
 800062e:	b082      	sub	sp, #8
 8000630:	af00      	add	r7, sp, #0
	// cr4 = odr = 25 hz, xen, yen, zen
	uint8_t val = LIS3DSH_CR4_ODR_25HZ | LIS3DSH_CR4_XEN | LIS3DSH_CR4_YEN | LIS3DSH_CR4_ZEN;
 8000632:	2347      	movs	r3, #71	; 0x47
 8000634:	71fb      	strb	r3, [r7, #7]
	SPI_Write(LIS3DSH_CONTROL_REG4_ADDR, &val, 1);
 8000636:	1dfb      	adds	r3, r7, #7
 8000638:	2201      	movs	r2, #1
 800063a:	4619      	mov	r1, r3
 800063c:	2020      	movs	r0, #32
 800063e:	f7ff ff9d 	bl	800057c <SPI_Write>
}
 8000642:	bf00      	nop
 8000644:	3708      	adds	r7, #8
 8000646:	46bd      	mov	sp, r7
 8000648:	bd80      	pop	{r7, pc}

0800064a <LIS3DSH_WaitForDataAvail>:

void LIS3DSH_WaitForDataAvail(void) {
 800064a:	b580      	push	{r7, lr}
 800064c:	b082      	sub	sp, #8
 800064e:	af00      	add	r7, sp, #0
	uint8_t val;
	// wait while status regr xda, yda and zda bits are zero
	do {
		SPI_Read(LIS3DSH_STATUS_REG_ADDR, &val, 1);
 8000650:	1dfb      	adds	r3, r7, #7
 8000652:	2201      	movs	r2, #1
 8000654:	4619      	mov	r1, r3
 8000656:	2027      	movs	r0, #39	; 0x27
 8000658:	f7ff ffba 	bl	80005d0 <SPI_Read>
	} while( (val & LIS3DSH_SR_XYZ_MSK) == 0);
 800065c:	79fb      	ldrb	r3, [r7, #7]
 800065e:	f003 0307 	and.w	r3, r3, #7
 8000662:	2b00      	cmp	r3, #0
 8000664:	d0f4      	beq.n	8000650 <LIS3DSH_WaitForDataAvail+0x6>
}
 8000666:	bf00      	nop
 8000668:	bf00      	nop
 800066a:	3708      	adds	r7, #8
 800066c:	46bd      	mov	sp, r7
 800066e:	bd80      	pop	{r7, pc}

08000670 <LIS3DSH_ReadData>:
void LIS3DSH_ReadData(LIS3DSH_Data *data) {
 8000670:	b580      	push	{r7, lr}
 8000672:	b084      	sub	sp, #16
 8000674:	af00      	add	r7, sp, #0
 8000676:	6078      	str	r0, [r7, #4]
	uint8_t buf[2];
	// read xl and xh readings and convert to x 16-bit reading
	SPI_Read(LIS3DSH_OUT_XL_ADDR, buf, 2);
 8000678:	f107 030c 	add.w	r3, r7, #12
 800067c:	2202      	movs	r2, #2
 800067e:	4619      	mov	r1, r3
 8000680:	2028      	movs	r0, #40	; 0x28
 8000682:	f7ff ffa5 	bl	80005d0 <SPI_Read>
	data->x = (((uint16_t)buf[1]) << 8) | buf[0];
 8000686:	7b7b      	ldrb	r3, [r7, #13]
 8000688:	021b      	lsls	r3, r3, #8
 800068a:	b21a      	sxth	r2, r3
 800068c:	7b3b      	ldrb	r3, [r7, #12]
 800068e:	b21b      	sxth	r3, r3
 8000690:	4313      	orrs	r3, r2
 8000692:	b21a      	sxth	r2, r3
 8000694:	687b      	ldr	r3, [r7, #4]
 8000696:	801a      	strh	r2, [r3, #0]

	// read yl and yh readings and convert to y 16-bit reading
	SPI_Read(LIS3DSH_OUT_YL_ADDR, buf, 2);
 8000698:	f107 030c 	add.w	r3, r7, #12
 800069c:	2202      	movs	r2, #2
 800069e:	4619      	mov	r1, r3
 80006a0:	202a      	movs	r0, #42	; 0x2a
 80006a2:	f7ff ff95 	bl	80005d0 <SPI_Read>
	data->y = (((uint16_t)buf[1]) << 8) | buf[0];
 80006a6:	7b7b      	ldrb	r3, [r7, #13]
 80006a8:	021b      	lsls	r3, r3, #8
 80006aa:	b21a      	sxth	r2, r3
 80006ac:	7b3b      	ldrb	r3, [r7, #12]
 80006ae:	b21b      	sxth	r3, r3
 80006b0:	4313      	orrs	r3, r2
 80006b2:	b21a      	sxth	r2, r3
 80006b4:	687b      	ldr	r3, [r7, #4]
 80006b6:	805a      	strh	r2, [r3, #2]

	// read zl and zh readings and convert to z 16-bit reading
	SPI_Read(LIS3DSH_OUT_ZL_ADDR, buf, 2);
 80006b8:	f107 030c 	add.w	r3, r7, #12
 80006bc:	2202      	movs	r2, #2
 80006be:	4619      	mov	r1, r3
 80006c0:	202c      	movs	r0, #44	; 0x2c
 80006c2:	f7ff ff85 	bl	80005d0 <SPI_Read>
	data->z = (((uint16_t)buf[1]) << 8) | buf[0];
 80006c6:	7b7b      	ldrb	r3, [r7, #13]
 80006c8:	021b      	lsls	r3, r3, #8
 80006ca:	b21a      	sxth	r2, r3
 80006cc:	7b3b      	ldrb	r3, [r7, #12]
 80006ce:	b21b      	sxth	r3, r3
 80006d0:	4313      	orrs	r3, r2
 80006d2:	b21a      	sxth	r2, r3
 80006d4:	687b      	ldr	r3, [r7, #4]
 80006d6:	809a      	strh	r2, [r3, #4]
}
 80006d8:	bf00      	nop
 80006da:	3710      	adds	r7, #16
 80006dc:	46bd      	mov	sp, r7
 80006de:	bd80      	pop	{r7, pc}

080006e0 <main>:
/**
  * @brief  The application entry point.
  * @retval int
  */
int main(void)
{
 80006e0:	b580      	push	{r7, lr}
 80006e2:	b08c      	sub	sp, #48	; 0x30
 80006e4:	af02      	add	r7, sp, #8
  /* USER CODE END 1 */

  /* MCU Configuration--------------------------------------------------------*/

  /* Reset of all peripherals, Initializes the Flash interface and the Systick. */
  HAL_Init();
 80006e6:	f000 fb0b 	bl	8000d00 <HAL_Init>
  /* USER CODE BEGIN Init */

  /* USER CODE END Init */

  /* Configure the system clock */
  SystemClock_Config();
 80006ea:	f000 f84f 	bl	800078c <SystemClock_Config>
  /* USER CODE BEGIN SysInit */

  /* USER CODE END SysInit */

  /* Initialize all configured peripherals */
  MX_GPIO_Init();
 80006ee:	f000 f917 	bl	8000920 <MX_GPIO_Init>
  MX_SPI1_Init();
 80006f2:	f000 f8b5 	bl	8000860 <MX_SPI1_Init>
  MX_USART2_UART_Init();
 80006f6:	f000 f8e9 	bl	80008cc <MX_USART2_UART_Init>
  /* USER CODE BEGIN 2 */
  LIS3DSH_Init();
 80006fa:	f7ff ff97 	bl	800062c <LIS3DSH_Init>

  /* Infinite loop */
  /* USER CODE BEGIN WHILE */
  while (1)
  {
	while(extint_flag == 0)
 80006fe:	bf00      	nop
 8000700:	4b1e      	ldr	r3, [pc, #120]	; (800077c <main+0x9c>)
 8000702:	681b      	ldr	r3, [r3, #0]
 8000704:	2b00      	cmp	r3, #0
 8000706:	d0fb      	beq.n	8000700 <main+0x20>
	  ;
  extint_flag = 0;
 8000708:	4b1c      	ldr	r3, [pc, #112]	; (800077c <main+0x9c>)
 800070a:	2200      	movs	r2, #0
 800070c:	601a      	str	r2, [r3, #0]
  HAL_GPIO_WritePin(GPIOD, GPIO_PIN_15, GPIO_PIN_SET);
 800070e:	2201      	movs	r2, #1
 8000710:	f44f 4100 	mov.w	r1, #32768	; 0x8000
 8000714:	481a      	ldr	r0, [pc, #104]	; (8000780 <main+0xa0>)
 8000716:	f000 fe37 	bl	8001388 <HAL_GPIO_WritePin>
  HAL_Delay(500);
 800071a:	f44f 70fa 	mov.w	r0, #500	; 0x1f4
 800071e:	f000 fb61 	bl	8000de4 <HAL_Delay>
  HAL_GPIO_WritePin(GPIOD, GPIO_PIN_15, GPIO_PIN_RESET);
 8000722:	2200      	movs	r2, #0
 8000724:	f44f 4100 	mov.w	r1, #32768	; 0x8000
 8000728:	4815      	ldr	r0, [pc, #84]	; (8000780 <main+0xa0>)
 800072a:	f000 fe2d 	bl	8001388 <HAL_GPIO_WritePin>


	  char str[32];
  LIS3DSH_Data data;
  LIS3DSH_WaitForDataAvail(); // wait for x, y or z reading to change
 800072e:	f7ff ff8c 	bl	800064a <LIS3DSH_WaitForDataAvail>
  LIS3DSH_ReadData(&data); // get accel reading
 8000732:	f107 0320 	add.w	r3, r7, #32
 8000736:	4618      	mov	r0, r3
 8000738:	f7ff ff9a 	bl	8000670 <LIS3DSH_ReadData>
  sprintf(str, "x=%d, y=%d, z=%d\r\n", data.x, data.y, data.z); // convert reading into string
 800073c:	f9b7 3020 	ldrsh.w	r3, [r7, #32]
 8000740:	461a      	mov	r2, r3
 8000742:	f9b7 3022 	ldrsh.w	r3, [r7, #34]	; 0x22
 8000746:	4619      	mov	r1, r3
 8000748:	f9b7 3024 	ldrsh.w	r3, [r7, #36]	; 0x24
 800074c:	4638      	mov	r0, r7
 800074e:	9300      	str	r3, [sp, #0]
 8000750:	460b      	mov	r3, r1
 8000752:	490c      	ldr	r1, [pc, #48]	; (8000784 <main+0xa4>)
 8000754:	f002 fc4c 	bl	8002ff0 <siprintf>
  HAL_UART_Transmit(&huart2, (uint8_t*)str, strlen(str), HAL_MAX_DELAY); // send it to uart
 8000758:	463b      	mov	r3, r7
 800075a:	4618      	mov	r0, r3
 800075c:	f7ff fd38 	bl	80001d0 <strlen>
 8000760:	4603      	mov	r3, r0
 8000762:	b29a      	uxth	r2, r3
 8000764:	4639      	mov	r1, r7
 8000766:	f04f 33ff 	mov.w	r3, #4294967295	; 0xffffffff
 800076a:	4807      	ldr	r0, [pc, #28]	; (8000788 <main+0xa8>)
 800076c:	f002 f8cb 	bl	8002906 <HAL_UART_Transmit>
  HAL_Delay(1000);
 8000770:	f44f 707a 	mov.w	r0, #1000	; 0x3e8
 8000774:	f000 fb36 	bl	8000de4 <HAL_Delay>
  {
 8000778:	e7c1      	b.n	80006fe <main+0x1e>
 800077a:	bf00      	nop
 800077c:	20000114 	.word	0x20000114
 8000780:	40020c00 	.word	0x40020c00
 8000784:	08003950 	.word	0x08003950
 8000788:	200000d0 	.word	0x200000d0

0800078c <SystemClock_Config>:
/**
  * @brief System Clock Configuration
  * @retval None
  */
void SystemClock_Config(void)
{
 800078c:	b580      	push	{r7, lr}
 800078e:	b094      	sub	sp, #80	; 0x50
 8000790:	af00      	add	r7, sp, #0
  RCC_OscInitTypeDef RCC_OscInitStruct = {0};
 8000792:	f107 0320 	add.w	r3, r7, #32
 8000796:	2230      	movs	r2, #48	; 0x30
 8000798:	2100      	movs	r1, #0
 800079a:	4618      	mov	r0, r3
 800079c:	f002 fc48 	bl	8003030 <memset>
  RCC_ClkInitTypeDef RCC_ClkInitStruct = {0};
 80007a0:	f107 030c 	add.w	r3, r7, #12
 80007a4:	2200      	movs	r2, #0
 80007a6:	601a      	str	r2, [r3, #0]
 80007a8:	605a      	str	r2, [r3, #4]
 80007aa:	609a      	str	r2, [r3, #8]
 80007ac:	60da      	str	r2, [r3, #12]
 80007ae:	611a      	str	r2, [r3, #16]

  /** Configure the main internal regulator output voltage
  */
  __HAL_RCC_PWR_CLK_ENABLE();
 80007b0:	2300      	movs	r3, #0
 80007b2:	60bb      	str	r3, [r7, #8]
 80007b4:	4b28      	ldr	r3, [pc, #160]	; (8000858 <SystemClock_Config+0xcc>)
 80007b6:	6c1b      	ldr	r3, [r3, #64]	; 0x40
 80007b8:	4a27      	ldr	r2, [pc, #156]	; (8000858 <SystemClock_Config+0xcc>)
 80007ba:	f043 5380 	orr.w	r3, r3, #268435456	; 0x10000000
 80007be:	6413      	str	r3, [r2, #64]	; 0x40
 80007c0:	4b25      	ldr	r3, [pc, #148]	; (8000858 <SystemClock_Config+0xcc>)
 80007c2:	6c1b      	ldr	r3, [r3, #64]	; 0x40
 80007c4:	f003 5380 	and.w	r3, r3, #268435456	; 0x10000000
 80007c8:	60bb      	str	r3, [r7, #8]
 80007ca:	68bb      	ldr	r3, [r7, #8]
  __HAL_PWR_VOLTAGESCALING_CONFIG(PWR_REGULATOR_VOLTAGE_SCALE1);
 80007cc:	2300      	movs	r3, #0
 80007ce:	607b      	str	r3, [r7, #4]
 80007d0:	4b22      	ldr	r3, [pc, #136]	; (800085c <SystemClock_Config+0xd0>)
 80007d2:	681b      	ldr	r3, [r3, #0]
 80007d4:	4a21      	ldr	r2, [pc, #132]	; (800085c <SystemClock_Config+0xd0>)
 80007d6:	f443 4380 	orr.w	r3, r3, #16384	; 0x4000
 80007da:	6013      	str	r3, [r2, #0]
 80007dc:	4b1f      	ldr	r3, [pc, #124]	; (800085c <SystemClock_Config+0xd0>)
 80007de:	681b      	ldr	r3, [r3, #0]
 80007e0:	f403 4380 	and.w	r3, r3, #16384	; 0x4000
 80007e4:	607b      	str	r3, [r7, #4]
 80007e6:	687b      	ldr	r3, [r7, #4]

  /** Initializes the RCC Oscillators according to the specified parameters
  * in the RCC_OscInitTypeDef structure.
  */
  RCC_OscInitStruct.OscillatorType = RCC_OSCILLATORTYPE_HSI;
 80007e8:	2302      	movs	r3, #2
 80007ea:	623b      	str	r3, [r7, #32]
  RCC_OscInitStruct.HSIState = RCC_HSI_ON;
 80007ec:	2301      	movs	r3, #1
 80007ee:	62fb      	str	r3, [r7, #44]	; 0x2c
  RCC_OscInitStruct.HSICalibrationValue = RCC_HSICALIBRATION_DEFAULT;
 80007f0:	2310      	movs	r3, #16
 80007f2:	633b      	str	r3, [r7, #48]	; 0x30
  RCC_OscInitStruct.PLL.PLLState = RCC_PLL_ON;
 80007f4:	2302      	movs	r3, #2
 80007f6:	63bb      	str	r3, [r7, #56]	; 0x38
  RCC_OscInitStruct.PLL.PLLSource = RCC_PLLSOURCE_HSI;
 80007f8:	2300      	movs	r3, #0
 80007fa:	63fb      	str	r3, [r7, #60]	; 0x3c
  RCC_OscInitStruct.PLL.PLLM = 8;
 80007fc:	2308      	movs	r3, #8
 80007fe:	643b      	str	r3, [r7, #64]	; 0x40
  RCC_OscInitStruct.PLL.PLLN = 50;
 8000800:	2332      	movs	r3, #50	; 0x32
 8000802:	647b      	str	r3, [r7, #68]	; 0x44
  RCC_OscInitStruct.PLL.PLLP = RCC_PLLP_DIV4;
 8000804:	2304      	movs	r3, #4
 8000806:	64bb      	str	r3, [r7, #72]	; 0x48
  RCC_OscInitStruct.PLL.PLLQ = 7;
 8000808:	2307      	movs	r3, #7
 800080a:	64fb      	str	r3, [r7, #76]	; 0x4c
  if (HAL_RCC_OscConfig(&RCC_OscInitStruct) != HAL_OK)
 800080c:	f107 0320 	add.w	r3, r7, #32
 8000810:	4618      	mov	r0, r3
 8000812:	f000 fdeb 	bl	80013ec <HAL_RCC_OscConfig>
 8000816:	4603      	mov	r3, r0
 8000818:	2b00      	cmp	r3, #0
 800081a:	d001      	beq.n	8000820 <SystemClock_Config+0x94>
  {
    Error_Handler();
 800081c:	f000 f90e 	bl	8000a3c <Error_Handler>
  }

  /** Initializes the CPU, AHB and APB buses clocks
  */
  RCC_ClkInitStruct.ClockType = RCC_CLOCKTYPE_HCLK|RCC_CLOCKTYPE_SYSCLK
 8000820:	230f      	movs	r3, #15
 8000822:	60fb      	str	r3, [r7, #12]
                              |RCC_CLOCKTYPE_PCLK1|RCC_CLOCKTYPE_PCLK2;
  RCC_ClkInitStruct.SYSCLKSource = RCC_SYSCLKSOURCE_PLLCLK;
 8000824:	2302      	movs	r3, #2
 8000826:	613b      	str	r3, [r7, #16]
  RCC_ClkInitStruct.AHBCLKDivider = RCC_SYSCLK_DIV1;
 8000828:	2300      	movs	r3, #0
 800082a:	617b      	str	r3, [r7, #20]
  RCC_ClkInitStruct.APB1CLKDivider = RCC_HCLK_DIV4;
 800082c:	f44f 53a0 	mov.w	r3, #5120	; 0x1400
 8000830:	61bb      	str	r3, [r7, #24]
  RCC_ClkInitStruct.APB2CLKDivider = RCC_HCLK_DIV2;
 8000832:	f44f 5380 	mov.w	r3, #4096	; 0x1000
 8000836:	61fb      	str	r3, [r7, #28]

  if (HAL_RCC_ClockConfig(&RCC_ClkInitStruct, FLASH_LATENCY_0) != HAL_OK)
 8000838:	f107 030c 	add.w	r3, r7, #12
 800083c:	2100      	movs	r1, #0
 800083e:	4618      	mov	r0, r3
 8000840:	f001 f84c 	bl	80018dc <HAL_RCC_ClockConfig>
 8000844:	4603      	mov	r3, r0
 8000846:	2b00      	cmp	r3, #0
 8000848:	d001      	beq.n	800084e <SystemClock_Config+0xc2>
  {
    Error_Handler();
 800084a:	f000 f8f7 	bl	8000a3c <Error_Handler>
  }
}
 800084e:	bf00      	nop
 8000850:	3750      	adds	r7, #80	; 0x50
 8000852:	46bd      	mov	sp, r7
 8000854:	bd80      	pop	{r7, pc}
 8000856:	bf00      	nop
 8000858:	40023800 	.word	0x40023800
 800085c:	40007000 	.word	0x40007000

08000860 <MX_SPI1_Init>:
  * @brief SPI1 Initialization Function
  * @param None
  * @retval None
  */
static void MX_SPI1_Init(void)
{
 8000860:	b580      	push	{r7, lr}
 8000862:	af00      	add	r7, sp, #0

  /* USER CODE BEGIN SPI1_Init 1 */

  /* USER CODE END SPI1_Init 1 */
  /* SPI1 parameter configuration*/
  hspi1.Instance = SPI1;
 8000864:	4b17      	ldr	r3, [pc, #92]	; (80008c4 <MX_SPI1_Init+0x64>)
 8000866:	4a18      	ldr	r2, [pc, #96]	; (80008c8 <MX_SPI1_Init+0x68>)
 8000868:	601a      	str	r2, [r3, #0]
  hspi1.Init.Mode = SPI_MODE_MASTER;
 800086a:	4b16      	ldr	r3, [pc, #88]	; (80008c4 <MX_SPI1_Init+0x64>)
 800086c:	f44f 7282 	mov.w	r2, #260	; 0x104
 8000870:	605a      	str	r2, [r3, #4]
  hspi1.Init.Direction = SPI_DIRECTION_2LINES;
 8000872:	4b14      	ldr	r3, [pc, #80]	; (80008c4 <MX_SPI1_Init+0x64>)
 8000874:	2200      	movs	r2, #0
 8000876:	609a      	str	r2, [r3, #8]
  hspi1.Init.DataSize = SPI_DATASIZE_8BIT;
 8000878:	4b12      	ldr	r3, [pc, #72]	; (80008c4 <MX_SPI1_Init+0x64>)
 800087a:	2200      	movs	r2, #0
 800087c:	60da      	str	r2, [r3, #12]
  hspi1.Init.CLKPolarity = SPI_POLARITY_LOW;
 800087e:	4b11      	ldr	r3, [pc, #68]	; (80008c4 <MX_SPI1_Init+0x64>)
 8000880:	2200      	movs	r2, #0
 8000882:	611a      	str	r2, [r3, #16]
  hspi1.Init.CLKPhase = SPI_PHASE_1EDGE;
 8000884:	4b0f      	ldr	r3, [pc, #60]	; (80008c4 <MX_SPI1_Init+0x64>)
 8000886:	2200      	movs	r2, #0
 8000888:	615a      	str	r2, [r3, #20]
  hspi1.Init.NSS = SPI_NSS_SOFT;
 800088a:	4b0e      	ldr	r3, [pc, #56]	; (80008c4 <MX_SPI1_Init+0x64>)
 800088c:	f44f 7200 	mov.w	r2, #512	; 0x200
 8000890:	619a      	str	r2, [r3, #24]
  hspi1.Init.BaudRatePrescaler = SPI_BAUDRATEPRESCALER_8;
 8000892:	4b0c      	ldr	r3, [pc, #48]	; (80008c4 <MX_SPI1_Init+0x64>)
 8000894:	2210      	movs	r2, #16
 8000896:	61da      	str	r2, [r3, #28]
  hspi1.Init.FirstBit = SPI_FIRSTBIT_MSB;
 8000898:	4b0a      	ldr	r3, [pc, #40]	; (80008c4 <MX_SPI1_Init+0x64>)
 800089a:	2200      	movs	r2, #0
 800089c:	621a      	str	r2, [r3, #32]
  hspi1.Init.TIMode = SPI_TIMODE_DISABLE;
 800089e:	4b09      	ldr	r3, [pc, #36]	; (80008c4 <MX_SPI1_Init+0x64>)
 80008a0:	2200      	movs	r2, #0
 80008a2:	625a      	str	r2, [r3, #36]	; 0x24
  hspi1.Init.CRCCalculation = SPI_CRCCALCULATION_DISABLE;
 80008a4:	4b07      	ldr	r3, [pc, #28]	; (80008c4 <MX_SPI1_Init+0x64>)
 80008a6:	2200      	movs	r2, #0
 80008a8:	629a      	str	r2, [r3, #40]	; 0x28
  hspi1.Init.CRCPolynomial = 10;
 80008aa:	4b06      	ldr	r3, [pc, #24]	; (80008c4 <MX_SPI1_Init+0x64>)
 80008ac:	220a      	movs	r2, #10
 80008ae:	62da      	str	r2, [r3, #44]	; 0x2c
  if (HAL_SPI_Init(&hspi1) != HAL_OK)
 80008b0:	4804      	ldr	r0, [pc, #16]	; (80008c4 <MX_SPI1_Init+0x64>)
 80008b2:	f001 fa33 	bl	8001d1c <HAL_SPI_Init>
 80008b6:	4603      	mov	r3, r0
 80008b8:	2b00      	cmp	r3, #0
 80008ba:	d001      	beq.n	80008c0 <MX_SPI1_Init+0x60>
  {
    Error_Handler();
 80008bc:	f000 f8be 	bl	8000a3c <Error_Handler>
  }
  /* USER CODE BEGIN SPI1_Init 2 */

  /* USER CODE END SPI1_Init 2 */

}
 80008c0:	bf00      	nop
 80008c2:	bd80      	pop	{r7, pc}
 80008c4:	20000078 	.word	0x20000078
 80008c8:	40013000 	.word	0x40013000

080008cc <MX_USART2_UART_Init>:
  * @brief USART2 Initialization Function
  * @param None
  * @retval None
  */
static void MX_USART2_UART_Init(void)
{
 80008cc:	b580      	push	{r7, lr}
 80008ce:	af00      	add	r7, sp, #0
  /* USER CODE END USART2_Init 0 */

  /* USER CODE BEGIN USART2_Init 1 */

  /* USER CODE END USART2_Init 1 */
  huart2.Instance = USART2;
 80008d0:	4b11      	ldr	r3, [pc, #68]	; (8000918 <MX_USART2_UART_Init+0x4c>)
 80008d2:	4a12      	ldr	r2, [pc, #72]	; (800091c <MX_USART2_UART_Init+0x50>)
 80008d4:	601a      	str	r2, [r3, #0]
  huart2.Init.BaudRate = 9600;
 80008d6:	4b10      	ldr	r3, [pc, #64]	; (8000918 <MX_USART2_UART_Init+0x4c>)
 80008d8:	f44f 5216 	mov.w	r2, #9600	; 0x2580
 80008dc:	605a      	str	r2, [r3, #4]
  huart2.Init.WordLength = UART_WORDLENGTH_8B;
 80008de:	4b0e      	ldr	r3, [pc, #56]	; (8000918 <MX_USART2_UART_Init+0x4c>)
 80008e0:	2200      	movs	r2, #0
 80008e2:	609a      	str	r2, [r3, #8]
  huart2.Init.StopBits = UART_STOPBITS_1;
 80008e4:	4b0c      	ldr	r3, [pc, #48]	; (8000918 <MX_USART2_UART_Init+0x4c>)
 80008e6:	2200      	movs	r2, #0
 80008e8:	60da      	str	r2, [r3, #12]
  huart2.Init.Parity = UART_PARITY_NONE;
 80008ea:	4b0b      	ldr	r3, [pc, #44]	; (8000918 <MX_USART2_UART_Init+0x4c>)
 80008ec:	2200      	movs	r2, #0
 80008ee:	611a      	str	r2, [r3, #16]
  huart2.Init.Mode = UART_MODE_TX_RX;
 80008f0:	4b09      	ldr	r3, [pc, #36]	; (8000918 <MX_USART2_UART_Init+0x4c>)
 80008f2:	220c      	movs	r2, #12
 80008f4:	615a      	str	r2, [r3, #20]
  huart2.Init.HwFlowCtl = UART_HWCONTROL_NONE;
 80008f6:	4b08      	ldr	r3, [pc, #32]	; (8000918 <MX_USART2_UART_Init+0x4c>)
 80008f8:	2200      	movs	r2, #0
 80008fa:	619a      	str	r2, [r3, #24]
  huart2.Init.OverSampling = UART_OVERSAMPLING_16;
 80008fc:	4b06      	ldr	r3, [pc, #24]	; (8000918 <MX_USART2_UART_Init+0x4c>)
 80008fe:	2200      	movs	r2, #0
 8000900:	61da      	str	r2, [r3, #28]
  if (HAL_UART_Init(&huart2) != HAL_OK)
 8000902:	4805      	ldr	r0, [pc, #20]	; (8000918 <MX_USART2_UART_Init+0x4c>)
 8000904:	f001 ffb2 	bl	800286c <HAL_UART_Init>
 8000908:	4603      	mov	r3, r0
 800090a:	2b00      	cmp	r3, #0
 800090c:	d001      	beq.n	8000912 <MX_USART2_UART_Init+0x46>
  {
    Error_Handler();
 800090e:	f000 f895 	bl	8000a3c <Error_Handler>
  }
  /* USER CODE BEGIN USART2_Init 2 */

  /* USER CODE END USART2_Init 2 */

}
 8000912:	bf00      	nop
 8000914:	bd80      	pop	{r7, pc}
 8000916:	bf00      	nop
 8000918:	200000d0 	.word	0x200000d0
 800091c:	40004400 	.word	0x40004400

08000920 <MX_GPIO_Init>:
  * @brief GPIO Initialization Function
  * @param None
  * @retval None
  */
static void MX_GPIO_Init(void)
{
 8000920:	b580      	push	{r7, lr}
 8000922:	b088      	sub	sp, #32
 8000924:	af00      	add	r7, sp, #0
  GPIO_InitTypeDef GPIO_InitStruct = {0};
 8000926:	f107 030c 	add.w	r3, r7, #12
 800092a:	2200      	movs	r2, #0
 800092c:	601a      	str	r2, [r3, #0]
 800092e:	605a      	str	r2, [r3, #4]
 8000930:	609a      	str	r2, [r3, #8]
 8000932:	60da      	str	r2, [r3, #12]
 8000934:	611a      	str	r2, [r3, #16]
/* USER CODE BEGIN MX_GPIO_Init_1 */
/* USER CODE END MX_GPIO_Init_1 */

  /* GPIO Ports Clock Enable */
  __HAL_RCC_GPIOE_CLK_ENABLE();
 8000936:	2300      	movs	r3, #0
 8000938:	60bb      	str	r3, [r7, #8]
 800093a:	4b34      	ldr	r3, [pc, #208]	; (8000a0c <MX_GPIO_Init+0xec>)
 800093c:	6b1b      	ldr	r3, [r3, #48]	; 0x30
 800093e:	4a33      	ldr	r2, [pc, #204]	; (8000a0c <MX_GPIO_Init+0xec>)
 8000940:	f043 0310 	orr.w	r3, r3, #16
 8000944:	6313      	str	r3, [r2, #48]	; 0x30
 8000946:	4b31      	ldr	r3, [pc, #196]	; (8000a0c <MX_GPIO_Init+0xec>)
 8000948:	6b1b      	ldr	r3, [r3, #48]	; 0x30
 800094a:	f003 0310 	and.w	r3, r3, #16
 800094e:	60bb      	str	r3, [r7, #8]
 8000950:	68bb      	ldr	r3, [r7, #8]
  __HAL_RCC_GPIOA_CLK_ENABLE();
 8000952:	2300      	movs	r3, #0
 8000954:	607b      	str	r3, [r7, #4]
 8000956:	4b2d      	ldr	r3, [pc, #180]	; (8000a0c <MX_GPIO_Init+0xec>)
 8000958:	6b1b      	ldr	r3, [r3, #48]	; 0x30
 800095a:	4a2c      	ldr	r2, [pc, #176]	; (8000a0c <MX_GPIO_Init+0xec>)
 800095c:	f043 0301 	orr.w	r3, r3, #1
 8000960:	6313      	str	r3, [r2, #48]	; 0x30
 8000962:	4b2a      	ldr	r3, [pc, #168]	; (8000a0c <MX_GPIO_Init+0xec>)
 8000964:	6b1b      	ldr	r3, [r3, #48]	; 0x30
 8000966:	f003 0301 	and.w	r3, r3, #1
 800096a:	607b      	str	r3, [r7, #4]
 800096c:	687b      	ldr	r3, [r7, #4]
  __HAL_RCC_GPIOD_CLK_ENABLE();
 800096e:	2300      	movs	r3, #0
 8000970:	603b      	str	r3, [r7, #0]
 8000972:	4b26      	ldr	r3, [pc, #152]	; (8000a0c <MX_GPIO_Init+0xec>)
 8000974:	6b1b      	ldr	r3, [r3, #48]	; 0x30
 8000976:	4a25      	ldr	r2, [pc, #148]	; (8000a0c <MX_GPIO_Init+0xec>)
 8000978:	f043 0308 	orr.w	r3, r3, #8
 800097c:	6313      	str	r3, [r2, #48]	; 0x30
 800097e:	4b23      	ldr	r3, [pc, #140]	; (8000a0c <MX_GPIO_Init+0xec>)
 8000980:	6b1b      	ldr	r3, [r3, #48]	; 0x30
 8000982:	f003 0308 	and.w	r3, r3, #8
 8000986:	603b      	str	r3, [r7, #0]
 8000988:	683b      	ldr	r3, [r7, #0]

  /*Configure GPIO pin Output Level */
  HAL_GPIO_WritePin(GPIOE, GPIO_PIN_3, GPIO_PIN_RESET);
 800098a:	2200      	movs	r2, #0
 800098c:	2108      	movs	r1, #8
 800098e:	4820      	ldr	r0, [pc, #128]	; (8000a10 <MX_GPIO_Init+0xf0>)
 8000990:	f000 fcfa 	bl	8001388 <HAL_GPIO_WritePin>

  /*Configure GPIO pin Output Level */
  HAL_GPIO_WritePin(GPIOD, GPIO_PIN_14|GPIO_PIN_15, GPIO_PIN_RESET);
 8000994:	2200      	movs	r2, #0
 8000996:	f44f 4140 	mov.w	r1, #49152	; 0xc000
 800099a:	481e      	ldr	r0, [pc, #120]	; (8000a14 <MX_GPIO_Init+0xf4>)
 800099c:	f000 fcf4 	bl	8001388 <HAL_GPIO_WritePin>

  /*Configure GPIO pin : PE3 */
  GPIO_InitStruct.Pin = GPIO_PIN_3;
 80009a0:	2308      	movs	r3, #8
 80009a2:	60fb      	str	r3, [r7, #12]
  GPIO_InitStruct.Mode = GPIO_MODE_OUTPUT_PP;
 80009a4:	2301      	movs	r3, #1
 80009a6:	613b      	str	r3, [r7, #16]
  GPIO_InitStruct.Pull = GPIO_NOPULL;
 80009a8:	2300      	movs	r3, #0
 80009aa:	617b      	str	r3, [r7, #20]
  GPIO_InitStruct.Speed = GPIO_SPEED_FREQ_LOW;
 80009ac:	2300      	movs	r3, #0
 80009ae:	61bb      	str	r3, [r7, #24]
  HAL_GPIO_Init(GPIOE, &GPIO_InitStruct);
 80009b0:	f107 030c 	add.w	r3, r7, #12
 80009b4:	4619      	mov	r1, r3
 80009b6:	4816      	ldr	r0, [pc, #88]	; (8000a10 <MX_GPIO_Init+0xf0>)
 80009b8:	f000 fb4a 	bl	8001050 <HAL_GPIO_Init>

  /*Configure GPIO pin : PA0 */
  GPIO_InitStruct.Pin = GPIO_PIN_0;
 80009bc:	2301      	movs	r3, #1
 80009be:	60fb      	str	r3, [r7, #12]
  GPIO_InitStruct.Mode = GPIO_MODE_IT_RISING;
 80009c0:	f44f 1388 	mov.w	r3, #1114112	; 0x110000
 80009c4:	613b      	str	r3, [r7, #16]
  GPIO_InitStruct.Pull = GPIO_NOPULL;
 80009c6:	2300      	movs	r3, #0
 80009c8:	617b      	str	r3, [r7, #20]
  HAL_GPIO_Init(GPIOA, &GPIO_InitStruct);
 80009ca:	f107 030c 	add.w	r3, r7, #12
 80009ce:	4619      	mov	r1, r3
 80009d0:	4811      	ldr	r0, [pc, #68]	; (8000a18 <MX_GPIO_Init+0xf8>)
 80009d2:	f000 fb3d 	bl	8001050 <HAL_GPIO_Init>

  /*Configure GPIO pins : PD14 PD15 */
  GPIO_InitStruct.Pin = GPIO_PIN_14|GPIO_PIN_15;
 80009d6:	f44f 4340 	mov.w	r3, #49152	; 0xc000
 80009da:	60fb      	str	r3, [r7, #12]
  GPIO_InitStruct.Mode = GPIO_MODE_OUTPUT_PP;
 80009dc:	2301      	movs	r3, #1
 80009de:	613b      	str	r3, [r7, #16]
  GPIO_InitStruct.Pull = GPIO_NOPULL;
 80009e0:	2300      	movs	r3, #0
 80009e2:	617b      	str	r3, [r7, #20]
  GPIO_InitStruct.Speed = GPIO_SPEED_FREQ_LOW;
 80009e4:	2300      	movs	r3, #0
 80009e6:	61bb      	str	r3, [r7, #24]
  HAL_GPIO_Init(GPIOD, &GPIO_InitStruct);
 80009e8:	f107 030c 	add.w	r3, r7, #12
 80009ec:	4619      	mov	r1, r3
 80009ee:	4809      	ldr	r0, [pc, #36]	; (8000a14 <MX_GPIO_Init+0xf4>)
 80009f0:	f000 fb2e 	bl	8001050 <HAL_GPIO_Init>

  /* EXTI interrupt init*/
  HAL_NVIC_SetPriority(EXTI0_IRQn, 0, 0);
 80009f4:	2200      	movs	r2, #0
 80009f6:	2100      	movs	r1, #0
 80009f8:	2006      	movs	r0, #6
 80009fa:	f000 faf2 	bl	8000fe2 <HAL_NVIC_SetPriority>
  HAL_NVIC_EnableIRQ(EXTI0_IRQn);
 80009fe:	2006      	movs	r0, #6
 8000a00:	f000 fb0b 	bl	800101a <HAL_NVIC_EnableIRQ>

/* USER CODE BEGIN MX_GPIO_Init_2 */
/* USER CODE END MX_GPIO_Init_2 */
}
 8000a04:	bf00      	nop
 8000a06:	3720      	adds	r7, #32
 8000a08:	46bd      	mov	sp, r7
 8000a0a:	bd80      	pop	{r7, pc}
 8000a0c:	40023800 	.word	0x40023800
 8000a10:	40021000 	.word	0x40021000
 8000a14:	40020c00 	.word	0x40020c00
 8000a18:	40020000 	.word	0x40020000

08000a1c <HAL_GPIO_EXTI_Callback>:

/* USER CODE BEGIN 4 */
void HAL_GPIO_EXTI_Callback(uint16_t GPIO_Pin)
{
 8000a1c:	b480      	push	{r7}
 8000a1e:	b083      	sub	sp, #12
 8000a20:	af00      	add	r7, sp, #0
 8000a22:	4603      	mov	r3, r0
 8000a24:	80fb      	strh	r3, [r7, #6]
	extint_flag = 1;
 8000a26:	4b04      	ldr	r3, [pc, #16]	; (8000a38 <HAL_GPIO_EXTI_Callback+0x1c>)
 8000a28:	2201      	movs	r2, #1
 8000a2a:	601a      	str	r2, [r3, #0]
}
 8000a2c:	bf00      	nop
 8000a2e:	370c      	adds	r7, #12
 8000a30:	46bd      	mov	sp, r7
 8000a32:	f85d 7b04 	ldr.w	r7, [sp], #4
 8000a36:	4770      	bx	lr
 8000a38:	20000114 	.word	0x20000114

08000a3c <Error_Handler>:
/**
  * @brief  This function is executed in case of error occurrence.
  * @retval None
  */
void Error_Handler(void)
{
 8000a3c:	b480      	push	{r7}
 8000a3e:	af00      	add	r7, sp, #0
  \details Disables IRQ interrupts by setting the I-bit in the CPSR.
           Can only be executed in Privileged modes.
 */
__STATIC_FORCEINLINE void __disable_irq(void)
{
  __ASM volatile ("cpsid i" : : : "memory");
 8000a40:	b672      	cpsid	i
}
 8000a42:	bf00      	nop
  /* USER CODE BEGIN Error_Handler_Debug */
  /* User can add his own implementation to report the HAL error return state */
  __disable_irq();
  while (1)
 8000a44:	e7fe      	b.n	8000a44 <Error_Handler+0x8>
	...

08000a48 <HAL_MspInit>:
/* USER CODE END 0 */
/**
  * Initializes the Global MSP.
  */
void HAL_MspInit(void)
{
 8000a48:	b580      	push	{r7, lr}
 8000a4a:	b082      	sub	sp, #8
 8000a4c:	af00      	add	r7, sp, #0
  /* USER CODE BEGIN MspInit 0 */

  /* USER CODE END MspInit 0 */

  __HAL_RCC_SYSCFG_CLK_ENABLE();
 8000a4e:	2300      	movs	r3, #0
 8000a50:	607b      	str	r3, [r7, #4]
 8000a52:	4b10      	ldr	r3, [pc, #64]	; (8000a94 <HAL_MspInit+0x4c>)
 8000a54:	6c5b      	ldr	r3, [r3, #68]	; 0x44
 8000a56:	4a0f      	ldr	r2, [pc, #60]	; (8000a94 <HAL_MspInit+0x4c>)
 8000a58:	f443 4380 	orr.w	r3, r3, #16384	; 0x4000
 8000a5c:	6453      	str	r3, [r2, #68]	; 0x44
 8000a5e:	4b0d      	ldr	r3, [pc, #52]	; (8000a94 <HAL_MspInit+0x4c>)
 8000a60:	6c5b      	ldr	r3, [r3, #68]	; 0x44
 8000a62:	f403 4380 	and.w	r3, r3, #16384	; 0x4000
 8000a66:	607b      	str	r3, [r7, #4]
 8000a68:	687b      	ldr	r3, [r7, #4]
  __HAL_RCC_PWR_CLK_ENABLE();
 8000a6a:	2300      	movs	r3, #0
 8000a6c:	603b      	str	r3, [r7, #0]
 8000a6e:	4b09      	ldr	r3, [pc, #36]	; (8000a94 <HAL_MspInit+0x4c>)
 8000a70:	6c1b      	ldr	r3, [r3, #64]	; 0x40
 8000a72:	4a08      	ldr	r2, [pc, #32]	; (8000a94 <HAL_MspInit+0x4c>)
 8000a74:	f043 5380 	orr.w	r3, r3, #268435456	; 0x10000000
 8000a78:	6413      	str	r3, [r2, #64]	; 0x40
 8000a7a:	4b06      	ldr	r3, [pc, #24]	; (8000a94 <HAL_MspInit+0x4c>)
 8000a7c:	6c1b      	ldr	r3, [r3, #64]	; 0x40
 8000a7e:	f003 5380 	and.w	r3, r3, #268435456	; 0x10000000
 8000a82:	603b      	str	r3, [r7, #0]
 8000a84:	683b      	ldr	r3, [r7, #0]

  HAL_NVIC_SetPriorityGrouping(NVIC_PRIORITYGROUP_0);
 8000a86:	2007      	movs	r0, #7
 8000a88:	f000 faa0 	bl	8000fcc <HAL_NVIC_SetPriorityGrouping>
  /* System interrupt init*/

  /* USER CODE BEGIN MspInit 1 */

  /* USER CODE END MspInit 1 */
}
 8000a8c:	bf00      	nop
 8000a8e:	3708      	adds	r7, #8
 8000a90:	46bd      	mov	sp, r7
 8000a92:	bd80      	pop	{r7, pc}
 8000a94:	40023800 	.word	0x40023800

08000a98 <HAL_SPI_MspInit>:
* This function configures the hardware resources used in this example
* @param hspi: SPI handle pointer
* @retval None
*/
void HAL_SPI_MspInit(SPI_HandleTypeDef* hspi)
{
 8000a98:	b580      	push	{r7, lr}
 8000a9a:	b08a      	sub	sp, #40	; 0x28
 8000a9c:	af00      	add	r7, sp, #0
 8000a9e:	6078      	str	r0, [r7, #4]
  GPIO_InitTypeDef GPIO_InitStruct = {0};
 8000aa0:	f107 0314 	add.w	r3, r7, #20
 8000aa4:	2200      	movs	r2, #0
 8000aa6:	601a      	str	r2, [r3, #0]
 8000aa8:	605a      	str	r2, [r3, #4]
 8000aaa:	609a      	str	r2, [r3, #8]
 8000aac:	60da      	str	r2, [r3, #12]
 8000aae:	611a      	str	r2, [r3, #16]
  if(hspi->Instance==SPI1)
 8000ab0:	687b      	ldr	r3, [r7, #4]
 8000ab2:	681b      	ldr	r3, [r3, #0]
 8000ab4:	4a19      	ldr	r2, [pc, #100]	; (8000b1c <HAL_SPI_MspInit+0x84>)
 8000ab6:	4293      	cmp	r3, r2
 8000ab8:	d12b      	bne.n	8000b12 <HAL_SPI_MspInit+0x7a>
  {
  /* USER CODE BEGIN SPI1_MspInit 0 */

  /* USER CODE END SPI1_MspInit 0 */
    /* Peripheral clock enable */
    __HAL_RCC_SPI1_CLK_ENABLE();
 8000aba:	2300      	movs	r3, #0
 8000abc:	613b      	str	r3, [r7, #16]
 8000abe:	4b18      	ldr	r3, [pc, #96]	; (8000b20 <HAL_SPI_MspInit+0x88>)
 8000ac0:	6c5b      	ldr	r3, [r3, #68]	; 0x44
 8000ac2:	4a17      	ldr	r2, [pc, #92]	; (8000b20 <HAL_SPI_MspInit+0x88>)
 8000ac4:	f443 5380 	orr.w	r3, r3, #4096	; 0x1000
 8000ac8:	6453      	str	r3, [r2, #68]	; 0x44
 8000aca:	4b15      	ldr	r3, [pc, #84]	; (8000b20 <HAL_SPI_MspInit+0x88>)
 8000acc:	6c5b      	ldr	r3, [r3, #68]	; 0x44
 8000ace:	f403 5380 	and.w	r3, r3, #4096	; 0x1000
 8000ad2:	613b      	str	r3, [r7, #16]
 8000ad4:	693b      	ldr	r3, [r7, #16]

    __HAL_RCC_GPIOA_CLK_ENABLE();
 8000ad6:	2300      	movs	r3, #0
 8000ad8:	60fb      	str	r3, [r7, #12]
 8000ada:	4b11      	ldr	r3, [pc, #68]	; (8000b20 <HAL_SPI_MspInit+0x88>)
 8000adc:	6b1b      	ldr	r3, [r3, #48]	; 0x30
 8000ade:	4a10      	ldr	r2, [pc, #64]	; (8000b20 <HAL_SPI_MspInit+0x88>)
 8000ae0:	f043 0301 	orr.w	r3, r3, #1
 8000ae4:	6313      	str	r3, [r2, #48]	; 0x30
 8000ae6:	4b0e      	ldr	r3, [pc, #56]	; (8000b20 <HAL_SPI_MspInit+0x88>)
 8000ae8:	6b1b      	ldr	r3, [r3, #48]	; 0x30
 8000aea:	f003 0301 	and.w	r3, r3, #1
 8000aee:	60fb      	str	r3, [r7, #12]
 8000af0:	68fb      	ldr	r3, [r7, #12]
    /**SPI1 GPIO Configuration
    PA5     ------> SPI1_SCK
    PA6     ------> SPI1_MISO
    PA7     ------> SPI1_MOSI
    */
    GPIO_InitStruct.Pin = GPIO_PIN_5|GPIO_PIN_6|GPIO_PIN_7;
 8000af2:	23e0      	movs	r3, #224	; 0xe0
 8000af4:	617b      	str	r3, [r7, #20]
    GPIO_InitStruct.Mode = GPIO_MODE_AF_PP;
 8000af6:	2302      	movs	r3, #2
 8000af8:	61bb      	str	r3, [r7, #24]
    GPIO_InitStruct.Pull = GPIO_NOPULL;
 8000afa:	2300      	movs	r3, #0
 8000afc:	61fb      	str	r3, [r7, #28]
    GPIO_InitStruct.Speed = GPIO_SPEED_FREQ_VERY_HIGH;
 8000afe:	2303      	movs	r3, #3
 8000b00:	623b      	str	r3, [r7, #32]
    GPIO_InitStruct.Alternate = GPIO_AF5_SPI1;
 8000b02:	2305      	movs	r3, #5
 8000b04:	627b      	str	r3, [r7, #36]	; 0x24
    HAL_GPIO_Init(GPIOA, &GPIO_InitStruct);
 8000b06:	f107 0314 	add.w	r3, r7, #20
 8000b0a:	4619      	mov	r1, r3
 8000b0c:	4805      	ldr	r0, [pc, #20]	; (8000b24 <HAL_SPI_MspInit+0x8c>)
 8000b0e:	f000 fa9f 	bl	8001050 <HAL_GPIO_Init>
  /* USER CODE BEGIN SPI1_MspInit 1 */

  /* USER CODE END SPI1_MspInit 1 */
  }

}
 8000b12:	bf00      	nop
 8000b14:	3728      	adds	r7, #40	; 0x28
 8000b16:	46bd      	mov	sp, r7
 8000b18:	bd80      	pop	{r7, pc}
 8000b1a:	bf00      	nop
 8000b1c:	40013000 	.word	0x40013000
 8000b20:	40023800 	.word	0x40023800
 8000b24:	40020000 	.word	0x40020000

08000b28 <HAL_UART_MspInit>:
* This function configures the hardware resources used in this example
* @param huart: UART handle pointer
* @retval None
*/
void HAL_UART_MspInit(UART_HandleTypeDef* huart)
{
 8000b28:	b580      	push	{r7, lr}
 8000b2a:	b08a      	sub	sp, #40	; 0x28
 8000b2c:	af00      	add	r7, sp, #0
 8000b2e:	6078      	str	r0, [r7, #4]
  GPIO_InitTypeDef GPIO_InitStruct = {0};
 8000b30:	f107 0314 	add.w	r3, r7, #20
 8000b34:	2200      	movs	r2, #0
 8000b36:	601a      	str	r2, [r3, #0]
 8000b38:	605a      	str	r2, [r3, #4]
 8000b3a:	609a      	str	r2, [r3, #8]
 8000b3c:	60da      	str	r2, [r3, #12]
 8000b3e:	611a      	str	r2, [r3, #16]
  if(huart->Instance==USART2)
 8000b40:	687b      	ldr	r3, [r7, #4]
 8000b42:	681b      	ldr	r3, [r3, #0]
 8000b44:	4a19      	ldr	r2, [pc, #100]	; (8000bac <HAL_UART_MspInit+0x84>)
 8000b46:	4293      	cmp	r3, r2
 8000b48:	d12b      	bne.n	8000ba2 <HAL_UART_MspInit+0x7a>
  {
  /* USER CODE BEGIN USART2_MspInit 0 */

  /* USER CODE END USART2_MspInit 0 */
    /* Peripheral clock enable */
    __HAL_RCC_USART2_CLK_ENABLE();
 8000b4a:	2300      	movs	r3, #0
 8000b4c:	613b      	str	r3, [r7, #16]
 8000b4e:	4b18      	ldr	r3, [pc, #96]	; (8000bb0 <HAL_UART_MspInit+0x88>)
 8000b50:	6c1b      	ldr	r3, [r3, #64]	; 0x40
 8000b52:	4a17      	ldr	r2, [pc, #92]	; (8000bb0 <HAL_UART_MspInit+0x88>)
 8000b54:	f443 3300 	orr.w	r3, r3, #131072	; 0x20000
 8000b58:	6413      	str	r3, [r2, #64]	; 0x40
 8000b5a:	4b15      	ldr	r3, [pc, #84]	; (8000bb0 <HAL_UART_MspInit+0x88>)
 8000b5c:	6c1b      	ldr	r3, [r3, #64]	; 0x40
 8000b5e:	f403 3300 	and.w	r3, r3, #131072	; 0x20000
 8000b62:	613b      	str	r3, [r7, #16]
 8000b64:	693b      	ldr	r3, [r7, #16]

    __HAL_RCC_GPIOA_CLK_ENABLE();
 8000b66:	2300      	movs	r3, #0
 8000b68:	60fb      	str	r3, [r7, #12]
 8000b6a:	4b11      	ldr	r3, [pc, #68]	; (8000bb0 <HAL_UART_MspInit+0x88>)
 8000b6c:	6b1b      	ldr	r3, [r3, #48]	; 0x30
 8000b6e:	4a10      	ldr	r2, [pc, #64]	; (8000bb0 <HAL_UART_MspInit+0x88>)
 8000b70:	f043 0301 	orr.w	r3, r3, #1
 8000b74:	6313      	str	r3, [r2, #48]	; 0x30
 8000b76:	4b0e      	ldr	r3, [pc, #56]	; (8000bb0 <HAL_UART_MspInit+0x88>)
 8000b78:	6b1b      	ldr	r3, [r3, #48]	; 0x30
 8000b7a:	f003 0301 	and.w	r3, r3, #1
 8000b7e:	60fb      	str	r3, [r7, #12]
 8000b80:	68fb      	ldr	r3, [r7, #12]
    /**USART2 GPIO Configuration
    PA2     ------> USART2_TX
    PA3     ------> USART2_RX
    */
    GPIO_InitStruct.Pin = GPIO_PIN_2|GPIO_PIN_3;
 8000b82:	230c      	movs	r3, #12
 8000b84:	617b      	str	r3, [r7, #20]
    GPIO_InitStruct.Mode = GPIO_MODE_AF_PP;
 8000b86:	2302      	movs	r3, #2
 8000b88:	61bb      	str	r3, [r7, #24]
    GPIO_InitStruct.Pull = GPIO_NOPULL;
 8000b8a:	2300      	movs	r3, #0
 8000b8c:	61fb      	str	r3, [r7, #28]
    GPIO_InitStruct.Speed = GPIO_SPEED_FREQ_VERY_HIGH;
 8000b8e:	2303      	movs	r3, #3
 8000b90:	623b      	str	r3, [r7, #32]
    GPIO_InitStruct.Alternate = GPIO_AF7_USART2;
 8000b92:	2307      	movs	r3, #7
 8000b94:	627b      	str	r3, [r7, #36]	; 0x24
    HAL_GPIO_Init(GPIOA, &GPIO_InitStruct);
 8000b96:	f107 0314 	add.w	r3, r7, #20
 8000b9a:	4619      	mov	r1, r3
 8000b9c:	4805      	ldr	r0, [pc, #20]	; (8000bb4 <HAL_UART_MspInit+0x8c>)
 8000b9e:	f000 fa57 	bl	8001050 <HAL_GPIO_Init>
  /* USER CODE BEGIN USART2_MspInit 1 */

  /* USER CODE END USART2_MspInit 1 */
  }

}
 8000ba2:	bf00      	nop
 8000ba4:	3728      	adds	r7, #40	; 0x28
 8000ba6:	46bd      	mov	sp, r7
 8000ba8:	bd80      	pop	{r7, pc}
 8000baa:	bf00      	nop
 8000bac:	40004400 	.word	0x40004400
 8000bb0:	40023800 	.word	0x40023800
 8000bb4:	40020000 	.word	0x40020000

08000bb8 <NMI_Handler>:
/******************************************************************************/
/**
  * @brief This function handles Non maskable interrupt.
  */
void NMI_Handler(void)
{
 8000bb8:	b480      	push	{r7}
 8000bba:	af00      	add	r7, sp, #0
  /* USER CODE BEGIN NonMaskableInt_IRQn 0 */

  /* USER CODE END NonMaskableInt_IRQn 0 */
  /* USER CODE BEGIN NonMaskableInt_IRQn 1 */
  while (1)
 8000bbc:	e7fe      	b.n	8000bbc <NMI_Handler+0x4>

08000bbe <HardFault_Handler>:

/**
  * @brief This function handles Hard fault interrupt.
  */
void HardFault_Handler(void)
{
 8000bbe:	b480      	push	{r7}
 8000bc0:	af00      	add	r7, sp, #0
  /* USER CODE BEGIN HardFault_IRQn 0 */

  /* USER CODE END HardFault_IRQn 0 */
  while (1)
 8000bc2:	e7fe      	b.n	8000bc2 <HardFault_Handler+0x4>

08000bc4 <MemManage_Handler>:

/**
  * @brief This function handles Memory management fault.
  */
void MemManage_Handler(void)
{
 8000bc4:	b480      	push	{r7}
 8000bc6:	af00      	add	r7, sp, #0
  /* USER CODE BEGIN MemoryManagement_IRQn 0 */

  /* USER CODE END MemoryManagement_IRQn 0 */
  while (1)
 8000bc8:	e7fe      	b.n	8000bc8 <MemManage_Handler+0x4>

08000bca <BusFault_Handler>:

/**
  * @brief This function handles Pre-fetch fault, memory access fault.
  */
void BusFault_Handler(void)
{
 8000bca:	b480      	push	{r7}
 8000bcc:	af00      	add	r7, sp, #0
  /* USER CODE BEGIN BusFault_IRQn 0 */

  /* USER CODE END BusFault_IRQn 0 */
  while (1)
 8000bce:	e7fe      	b.n	8000bce <BusFault_Handler+0x4>

08000bd0 <UsageFault_Handler>:

/**
  * @brief This function handles Undefined instruction or illegal state.
  */
void UsageFault_Handler(void)
{
 8000bd0:	b480      	push	{r7}
 8000bd2:	af00      	add	r7, sp, #0
  /* USER CODE BEGIN UsageFault_IRQn 0 */

  /* USER CODE END UsageFault_IRQn 0 */
  while (1)
 8000bd4:	e7fe      	b.n	8000bd4 <UsageFault_Handler+0x4>

08000bd6 <SVC_Handler>:

/**
  * @brief This function handles System service call via SWI instruction.
  */
void SVC_Handler(void)
{
 8000bd6:	b480      	push	{r7}
 8000bd8:	af00      	add	r7, sp, #0

  /* USER CODE END SVCall_IRQn 0 */
  /* USER CODE BEGIN SVCall_IRQn 1 */

  /* USER CODE END SVCall_IRQn 1 */
}
 8000bda:	bf00      	nop
 8000bdc:	46bd      	mov	sp, r7
 8000bde:	f85d 7b04 	ldr.w	r7, [sp], #4
 8000be2:	4770      	bx	lr

08000be4 <DebugMon_Handler>:

/**
  * @brief This function handles Debug monitor.
  */
void DebugMon_Handler(void)
{
 8000be4:	b480      	push	{r7}
 8000be6:	af00      	add	r7, sp, #0

  /* USER CODE END DebugMonitor_IRQn 0 */
  /* USER CODE BEGIN DebugMonitor_IRQn 1 */

  /* USER CODE END DebugMonitor_IRQn 1 */
}
 8000be8:	bf00      	nop
 8000bea:	46bd      	mov	sp, r7
 8000bec:	f85d 7b04 	ldr.w	r7, [sp], #4
 8000bf0:	4770      	bx	lr

08000bf2 <PendSV_Handler>:

/**
  * @brief This function handles Pendable request for system service.
  */
void PendSV_Handler(void)
{
 8000bf2:	b480      	push	{r7}
 8000bf4:	af00      	add	r7, sp, #0

  /* USER CODE END PendSV_IRQn 0 */
  /* USER CODE BEGIN PendSV_IRQn 1 */

  /* USER CODE END PendSV_IRQn 1 */
}
 8000bf6:	bf00      	nop
 8000bf8:	46bd      	mov	sp, r7
 8000bfa:	f85d 7b04 	ldr.w	r7, [sp], #4
 8000bfe:	4770      	bx	lr

08000c00 <SysTick_Handler>:

/**
  * @brief This function handles System tick timer.
  */
void SysTick_Handler(void)
{
 8000c00:	b580      	push	{r7, lr}
 8000c02:	af00      	add	r7, sp, #0
  /* USER CODE BEGIN SysTick_IRQn 0 */

  /* USER CODE END SysTick_IRQn 0 */
  HAL_IncTick();
 8000c04:	f000 f8ce 	bl	8000da4 <HAL_IncTick>
  /* USER CODE BEGIN SysTick_IRQn 1 */

  /* USER CODE END SysTick_IRQn 1 */
}
 8000c08:	bf00      	nop
 8000c0a:	bd80      	pop	{r7, pc}

08000c0c <EXTI0_IRQHandler>:

/**
  * @brief This function handles EXTI line0 interrupt.
  */
void EXTI0_IRQHandler(void)
{
 8000c0c:	b580      	push	{r7, lr}
 8000c0e:	af00      	add	r7, sp, #0
  /* USER CODE BEGIN EXTI0_IRQn 0 */

  /* USER CODE END EXTI0_IRQn 0 */
  HAL_GPIO_EXTI_IRQHandler(GPIO_PIN_0);
 8000c10:	2001      	movs	r0, #1
 8000c12:	f000 fbd3 	bl	80013bc <HAL_GPIO_EXTI_IRQHandler>
  /* USER CODE BEGIN EXTI0_IRQn 1 */

  /* USER CODE END EXTI0_IRQn 1 */
}
 8000c16:	bf00      	nop
 8000c18:	bd80      	pop	{r7, pc}
	...

08000c1c <_sbrk>:
 *
 * @param incr Memory size
 * @return Pointer to allocated memory
 */
void *_sbrk(ptrdiff_t incr)
{
 8000c1c:	b580      	push	{r7, lr}
 8000c1e:	b086      	sub	sp, #24
 8000c20:	af00      	add	r7, sp, #0
 8000c22:	6078      	str	r0, [r7, #4]
  extern uint8_t _end; /* Symbol defined in the linker script */
  extern uint8_t _estack; /* Symbol defined in the linker script */
  extern uint32_t _Min_Stack_Size; /* Symbol defined in the linker script */
  const uint32_t stack_limit = (uint32_t)&_estack - (uint32_t)&_Min_Stack_Size;
 8000c24:	4a14      	ldr	r2, [pc, #80]	; (8000c78 <_sbrk+0x5c>)
 8000c26:	4b15      	ldr	r3, [pc, #84]	; (8000c7c <_sbrk+0x60>)
 8000c28:	1ad3      	subs	r3, r2, r3
 8000c2a:	617b      	str	r3, [r7, #20]
  const uint8_t *max_heap = (uint8_t *)stack_limit;
 8000c2c:	697b      	ldr	r3, [r7, #20]
 8000c2e:	613b      	str	r3, [r7, #16]
  uint8_t *prev_heap_end;

  /* Initialize heap end at first call */
  if (NULL == __sbrk_heap_end)
 8000c30:	4b13      	ldr	r3, [pc, #76]	; (8000c80 <_sbrk+0x64>)
 8000c32:	681b      	ldr	r3, [r3, #0]
 8000c34:	2b00      	cmp	r3, #0
 8000c36:	d102      	bne.n	8000c3e <_sbrk+0x22>
  {
    __sbrk_heap_end = &_end;
 8000c38:	4b11      	ldr	r3, [pc, #68]	; (8000c80 <_sbrk+0x64>)
 8000c3a:	4a12      	ldr	r2, [pc, #72]	; (8000c84 <_sbrk+0x68>)
 8000c3c:	601a      	str	r2, [r3, #0]
  }

  /* Protect heap from growing into the reserved MSP stack */
  if (__sbrk_heap_end + incr > max_heap)
 8000c3e:	4b10      	ldr	r3, [pc, #64]	; (8000c80 <_sbrk+0x64>)
 8000c40:	681a      	ldr	r2, [r3, #0]
 8000c42:	687b      	ldr	r3, [r7, #4]
 8000c44:	4413      	add	r3, r2
 8000c46:	693a      	ldr	r2, [r7, #16]
 8000c48:	429a      	cmp	r2, r3
 8000c4a:	d207      	bcs.n	8000c5c <_sbrk+0x40>
  {
    errno = ENOMEM;
 8000c4c:	f002 f9f8 	bl	8003040 <__errno>
 8000c50:	4603      	mov	r3, r0
 8000c52:	220c      	movs	r2, #12
 8000c54:	601a      	str	r2, [r3, #0]
    return (void *)-1;
 8000c56:	f04f 33ff 	mov.w	r3, #4294967295	; 0xffffffff
 8000c5a:	e009      	b.n	8000c70 <_sbrk+0x54>
  }

  prev_heap_end = __sbrk_heap_end;
 8000c5c:	4b08      	ldr	r3, [pc, #32]	; (8000c80 <_sbrk+0x64>)
 8000c5e:	681b      	ldr	r3, [r3, #0]
 8000c60:	60fb      	str	r3, [r7, #12]
  __sbrk_heap_end += incr;
 8000c62:	4b07      	ldr	r3, [pc, #28]	; (8000c80 <_sbrk+0x64>)
 8000c64:	681a      	ldr	r2, [r3, #0]
 8000c66:	687b      	ldr	r3, [r7, #4]
 8000c68:	4413      	add	r3, r2
 8000c6a:	4a05      	ldr	r2, [pc, #20]	; (8000c80 <_sbrk+0x64>)
 8000c6c:	6013      	str	r3, [r2, #0]

  return (void *)prev_heap_end;
 8000c6e:	68fb      	ldr	r3, [r7, #12]
}
 8000c70:	4618      	mov	r0, r3
 8000c72:	3718      	adds	r7, #24
 8000c74:	46bd      	mov	sp, r7
 8000c76:	bd80      	pop	{r7, pc}
 8000c78:	20020000 	.word	0x20020000
 8000c7c:	00000400 	.word	0x00000400
 8000c80:	20000118 	.word	0x20000118
 8000c84:	20000268 	.word	0x20000268

08000c88 <SystemInit>:
  *         configuration.
  * @param  None
  * @retval None
  */
void SystemInit(void)
{
 8000c88:	b480      	push	{r7}
 8000c8a:	af00      	add	r7, sp, #0
  /* FPU settings ------------------------------------------------------------*/
  #if (__FPU_PRESENT == 1) && (__FPU_USED == 1)
    SCB->CPACR |= ((3UL << 10*2)|(3UL << 11*2));  /* set CP10 and CP11 Full Access */
 8000c8c:	4b06      	ldr	r3, [pc, #24]	; (8000ca8 <SystemInit+0x20>)
 8000c8e:	f8d3 3088 	ldr.w	r3, [r3, #136]	; 0x88
 8000c92:	4a05      	ldr	r2, [pc, #20]	; (8000ca8 <SystemInit+0x20>)
 8000c94:	f443 0370 	orr.w	r3, r3, #15728640	; 0xf00000
 8000c98:	f8c2 3088 	str.w	r3, [r2, #136]	; 0x88

  /* Configure the Vector Table location -------------------------------------*/
#if defined(USER_VECT_TAB_ADDRESS)
  SCB->VTOR = VECT_TAB_BASE_ADDRESS | VECT_TAB_OFFSET; /* Vector Table Relocation in Internal SRAM */
#endif /* USER_VECT_TAB_ADDRESS */
}
 8000c9c:	bf00      	nop
 8000c9e:	46bd      	mov	sp, r7
 8000ca0:	f85d 7b04 	ldr.w	r7, [sp], #4
 8000ca4:	4770      	bx	lr
 8000ca6:	bf00      	nop
 8000ca8:	e000ed00 	.word	0xe000ed00

08000cac <Reset_Handler>:

    .section  .text.Reset_Handler
  .weak  Reset_Handler
  .type  Reset_Handler, %function
Reset_Handler:  
  ldr   sp, =_estack     /* set stack pointer */
 8000cac:	f8df d034 	ldr.w	sp, [pc, #52]	; 8000ce4 <LoopFillZerobss+0x12>

/* Copy the data segment initializers from flash to SRAM */  
  ldr r0, =_sdata
 8000cb0:	480d      	ldr	r0, [pc, #52]	; (8000ce8 <LoopFillZerobss+0x16>)
  ldr r1, =_edata
 8000cb2:	490e      	ldr	r1, [pc, #56]	; (8000cec <LoopFillZerobss+0x1a>)
  ldr r2, =_sidata
 8000cb4:	4a0e      	ldr	r2, [pc, #56]	; (8000cf0 <LoopFillZerobss+0x1e>)
  movs r3, #0
 8000cb6:	2300      	movs	r3, #0
  b LoopCopyDataInit
 8000cb8:	e002      	b.n	8000cc0 <LoopCopyDataInit>

08000cba <CopyDataInit>:

CopyDataInit:
  ldr r4, [r2, r3]
 8000cba:	58d4      	ldr	r4, [r2, r3]
  str r4, [r0, r3]
 8000cbc:	50c4      	str	r4, [r0, r3]
  adds r3, r3, #4
 8000cbe:	3304      	adds	r3, #4

08000cc0 <LoopCopyDataInit>:

LoopCopyDataInit:
  adds r4, r0, r3
 8000cc0:	18c4      	adds	r4, r0, r3
  cmp r4, r1
 8000cc2:	428c      	cmp	r4, r1
  bcc CopyDataInit
 8000cc4:	d3f9      	bcc.n	8000cba <CopyDataInit>
  
/* Zero fill the bss segment. */
  ldr r2, =_sbss
 8000cc6:	4a0b      	ldr	r2, [pc, #44]	; (8000cf4 <LoopFillZerobss+0x22>)
  ldr r4, =_ebss
 8000cc8:	4c0b      	ldr	r4, [pc, #44]	; (8000cf8 <LoopFillZerobss+0x26>)
  movs r3, #0
 8000cca:	2300      	movs	r3, #0
  b LoopFillZerobss
 8000ccc:	e001      	b.n	8000cd2 <LoopFillZerobss>

08000cce <FillZerobss>:

FillZerobss:
  str  r3, [r2]
 8000cce:	6013      	str	r3, [r2, #0]
  adds r2, r2, #4
 8000cd0:	3204      	adds	r2, #4

08000cd2 <LoopFillZerobss>:

LoopFillZerobss:
  cmp r2, r4
 8000cd2:	42a2      	cmp	r2, r4
  bcc FillZerobss
 8000cd4:	d3fb      	bcc.n	8000cce <FillZerobss>

/* Call the clock system initialization function.*/
  bl  SystemInit   
 8000cd6:	f7ff ffd7 	bl	8000c88 <SystemInit>
/* Call static constructors */
    bl __libc_init_array
 8000cda:	f002 f9b7 	bl	800304c <__libc_init_array>
/* Call the application's entry point.*/
  bl  main
 8000cde:	f7ff fcff 	bl	80006e0 <main>
  bx  lr    
 8000ce2:	4770      	bx	lr
  ldr   sp, =_estack     /* set stack pointer */
 8000ce4:	20020000 	.word	0x20020000
  ldr r0, =_sdata
 8000ce8:	20000000 	.word	0x20000000
  ldr r1, =_edata
 8000cec:	2000005c 	.word	0x2000005c
  ldr r2, =_sidata
 8000cf0:	080039c0 	.word	0x080039c0
  ldr r2, =_sbss
 8000cf4:	2000005c 	.word	0x2000005c
  ldr r4, =_ebss
 8000cf8:	20000268 	.word	0x20000268

08000cfc <ADC_IRQHandler>:
 * @retval None       
*/
    .section  .text.Default_Handler,"ax",%progbits
Default_Handler:
Infinite_Loop:
  b  Infinite_Loop
 8000cfc:	e7fe      	b.n	8000cfc <ADC_IRQHandler>
	...

08000d00 <HAL_Init>:
  *         need to ensure that the SysTick time base is always set to 1 millisecond
  *         to have correct HAL operation.
  * @retval HAL status
  */
HAL_StatusTypeDef HAL_Init(void)
{
 8000d00:	b580      	push	{r7, lr}
 8000d02:	af00      	add	r7, sp, #0
  /* Configure Flash prefetch, Instruction cache, Data cache */ 
#if (INSTRUCTION_CACHE_ENABLE != 0U)
  __HAL_FLASH_INSTRUCTION_CACHE_ENABLE();
 8000d04:	4b0e      	ldr	r3, [pc, #56]	; (8000d40 <HAL_Init+0x40>)
 8000d06:	681b      	ldr	r3, [r3, #0]
 8000d08:	4a0d      	ldr	r2, [pc, #52]	; (8000d40 <HAL_Init+0x40>)
 8000d0a:	f443 7300 	orr.w	r3, r3, #512	; 0x200
 8000d0e:	6013      	str	r3, [r2, #0]
#endif /* INSTRUCTION_CACHE_ENABLE */

#if (DATA_CACHE_ENABLE != 0U)
  __HAL_FLASH_DATA_CACHE_ENABLE();
 8000d10:	4b0b      	ldr	r3, [pc, #44]	; (8000d40 <HAL_Init+0x40>)
 8000d12:	681b      	ldr	r3, [r3, #0]
 8000d14:	4a0a      	ldr	r2, [pc, #40]	; (8000d40 <HAL_Init+0x40>)
 8000d16:	f443 6380 	orr.w	r3, r3, #1024	; 0x400
 8000d1a:	6013      	str	r3, [r2, #0]
#endif /* DATA_CACHE_ENABLE */

#if (PREFETCH_ENABLE != 0U)
  __HAL_FLASH_PREFETCH_BUFFER_ENABLE();
 8000d1c:	4b08      	ldr	r3, [pc, #32]	; (8000d40 <HAL_Init+0x40>)
 8000d1e:	681b      	ldr	r3, [r3, #0]
 8000d20:	4a07      	ldr	r2, [pc, #28]	; (8000d40 <HAL_Init+0x40>)
 8000d22:	f443 7380 	orr.w	r3, r3, #256	; 0x100
 8000d26:	6013      	str	r3, [r2, #0]
#endif /* PREFETCH_ENABLE */

  /* Set Interrupt Group Priority */
  HAL_NVIC_SetPriorityGrouping(NVIC_PRIORITYGROUP_4);
 8000d28:	2003      	movs	r0, #3
 8000d2a:	f000 f94f 	bl	8000fcc <HAL_NVIC_SetPriorityGrouping>

  /* Use systick as time base source and configure 1ms tick (default clock after Reset is HSI) */
  HAL_InitTick(TICK_INT_PRIORITY);
 8000d2e:	2000      	movs	r0, #0
 8000d30:	f000 f808 	bl	8000d44 <HAL_InitTick>

  /* Init the low level hardware */
  HAL_MspInit();
 8000d34:	f7ff fe88 	bl	8000a48 <HAL_MspInit>

  /* Return function status */
  return HAL_OK;
 8000d38:	2300      	movs	r3, #0
}
 8000d3a:	4618      	mov	r0, r3
 8000d3c:	bd80      	pop	{r7, pc}
 8000d3e:	bf00      	nop
 8000d40:	40023c00 	.word	0x40023c00

08000d44 <HAL_InitTick>:
  *       implementation  in user file.
  * @param TickPriority Tick interrupt priority.
  * @retval HAL status
  */
__weak HAL_StatusTypeDef HAL_InitTick(uint32_t TickPriority)
{
 8000d44:	b580      	push	{r7, lr}
 8000d46:	b082      	sub	sp, #8
 8000d48:	af00      	add	r7, sp, #0
 8000d4a:	6078      	str	r0, [r7, #4]
  /* Configure the SysTick to have interrupt in 1ms time basis*/
  if (HAL_SYSTICK_Config(SystemCoreClock / (1000U / uwTickFreq)) > 0U)
 8000d4c:	4b12      	ldr	r3, [pc, #72]	; (8000d98 <HAL_InitTick+0x54>)
 8000d4e:	681a      	ldr	r2, [r3, #0]
 8000d50:	4b12      	ldr	r3, [pc, #72]	; (8000d9c <HAL_InitTick+0x58>)
 8000d52:	781b      	ldrb	r3, [r3, #0]
 8000d54:	4619      	mov	r1, r3
 8000d56:	f44f 737a 	mov.w	r3, #1000	; 0x3e8
 8000d5a:	fbb3 f3f1 	udiv	r3, r3, r1
 8000d5e:	fbb2 f3f3 	udiv	r3, r2, r3
 8000d62:	4618      	mov	r0, r3
 8000d64:	f000 f967 	bl	8001036 <HAL_SYSTICK_Config>
 8000d68:	4603      	mov	r3, r0
 8000d6a:	2b00      	cmp	r3, #0
 8000d6c:	d001      	beq.n	8000d72 <HAL_InitTick+0x2e>
  {
    return HAL_ERROR;
 8000d6e:	2301      	movs	r3, #1
 8000d70:	e00e      	b.n	8000d90 <HAL_InitTick+0x4c>
  }

  /* Configure the SysTick IRQ priority */
  if (TickPriority < (1UL << __NVIC_PRIO_BITS))
 8000d72:	687b      	ldr	r3, [r7, #4]
 8000d74:	2b0f      	cmp	r3, #15
 8000d76:	d80a      	bhi.n	8000d8e <HAL_InitTick+0x4a>
  {
    HAL_NVIC_SetPriority(SysTick_IRQn, TickPriority, 0U);
 8000d78:	2200      	movs	r2, #0
 8000d7a:	6879      	ldr	r1, [r7, #4]
 8000d7c:	f04f 30ff 	mov.w	r0, #4294967295	; 0xffffffff
 8000d80:	f000 f92f 	bl	8000fe2 <HAL_NVIC_SetPriority>
    uwTickPrio = TickPriority;
 8000d84:	4a06      	ldr	r2, [pc, #24]	; (8000da0 <HAL_InitTick+0x5c>)
 8000d86:	687b      	ldr	r3, [r7, #4]
 8000d88:	6013      	str	r3, [r2, #0]
  {
    return HAL_ERROR;
  }

  /* Return function status */
  return HAL_OK;
 8000d8a:	2300      	movs	r3, #0
 8000d8c:	e000      	b.n	8000d90 <HAL_InitTick+0x4c>
    return HAL_ERROR;
 8000d8e:	2301      	movs	r3, #1
}
 8000d90:	4618      	mov	r0, r3
 8000d92:	3708      	adds	r7, #8
 8000d94:	46bd      	mov	sp, r7
 8000d96:	bd80      	pop	{r7, pc}
 8000d98:	20000000 	.word	0x20000000
 8000d9c:	20000008 	.word	0x20000008
 8000da0:	20000004 	.word	0x20000004

08000da4 <HAL_IncTick>:
 * @note This function is declared as __weak to be overwritten in case of other 
  *      implementations in user file.
  * @retval None
  */
__weak void HAL_IncTick(void)
{
 8000da4:	b480      	push	{r7}
 8000da6:	af00      	add	r7, sp, #0
  uwTick += uwTickFreq;
 8000da8:	4b06      	ldr	r3, [pc, #24]	; (8000dc4 <HAL_IncTick+0x20>)
 8000daa:	781b      	ldrb	r3, [r3, #0]
 8000dac:	461a      	mov	r2, r3
 8000dae:	4b06      	ldr	r3, [pc, #24]	; (8000dc8 <HAL_IncTick+0x24>)
 8000db0:	681b      	ldr	r3, [r3, #0]
 8000db2:	4413      	add	r3, r2
 8000db4:	4a04      	ldr	r2, [pc, #16]	; (8000dc8 <HAL_IncTick+0x24>)
 8000db6:	6013      	str	r3, [r2, #0]
}
 8000db8:	bf00      	nop
 8000dba:	46bd      	mov	sp, r7
 8000dbc:	f85d 7b04 	ldr.w	r7, [sp], #4
 8000dc0:	4770      	bx	lr
 8000dc2:	bf00      	nop
 8000dc4:	20000008 	.word	0x20000008
 8000dc8:	2000011c 	.word	0x2000011c

08000dcc <HAL_GetTick>:
  * @note This function is declared as __weak to be overwritten in case of other 
  *       implementations in user file.
  * @retval tick value
  */
__weak uint32_t HAL_GetTick(void)
{
 8000dcc:	b480      	push	{r7}
 8000dce:	af00      	add	r7, sp, #0
  return uwTick;
 8000dd0:	4b03      	ldr	r3, [pc, #12]	; (8000de0 <HAL_GetTick+0x14>)
 8000dd2:	681b      	ldr	r3, [r3, #0]
}
 8000dd4:	4618      	mov	r0, r3
 8000dd6:	46bd      	mov	sp, r7
 8000dd8:	f85d 7b04 	ldr.w	r7, [sp], #4
 8000ddc:	4770      	bx	lr
 8000dde:	bf00      	nop
 8000de0:	2000011c 	.word	0x2000011c

08000de4 <HAL_Delay>:
  *       implementations in user file.
  * @param Delay specifies the delay time length, in milliseconds.
  * @retval None
  */
__weak void HAL_Delay(uint32_t Delay)
{
 8000de4:	b580      	push	{r7, lr}
 8000de6:	b084      	sub	sp, #16
 8000de8:	af00      	add	r7, sp, #0
 8000dea:	6078      	str	r0, [r7, #4]
  uint32_t tickstart = HAL_GetTick();
 8000dec:	f7ff ffee 	bl	8000dcc <HAL_GetTick>
 8000df0:	60b8      	str	r0, [r7, #8]
  uint32_t wait = Delay;
 8000df2:	687b      	ldr	r3, [r7, #4]
 8000df4:	60fb      	str	r3, [r7, #12]

  /* Add a freq to guarantee minimum wait */
  if (wait < HAL_MAX_DELAY)
 8000df6:	68fb      	ldr	r3, [r7, #12]
 8000df8:	f1b3 3fff 	cmp.w	r3, #4294967295	; 0xffffffff
 8000dfc:	d005      	beq.n	8000e0a <HAL_Delay+0x26>
  {
    wait += (uint32_t)(uwTickFreq);
 8000dfe:	4b0a      	ldr	r3, [pc, #40]	; (8000e28 <HAL_Delay+0x44>)
 8000e00:	781b      	ldrb	r3, [r3, #0]
 8000e02:	461a      	mov	r2, r3
 8000e04:	68fb      	ldr	r3, [r7, #12]
 8000e06:	4413      	add	r3, r2
 8000e08:	60fb      	str	r3, [r7, #12]
  }

  while((HAL_GetTick() - tickstart) < wait)
 8000e0a:	bf00      	nop
 8000e0c:	f7ff ffde 	bl	8000dcc <HAL_GetTick>
 8000e10:	4602      	mov	r2, r0
 8000e12:	68bb      	ldr	r3, [r7, #8]
 8000e14:	1ad3      	subs	r3, r2, r3
 8000e16:	68fa      	ldr	r2, [r7, #12]
 8000e18:	429a      	cmp	r2, r3
 8000e1a:	d8f7      	bhi.n	8000e0c <HAL_Delay+0x28>
  {
  }
}
 8000e1c:	bf00      	nop
 8000e1e:	bf00      	nop
 8000e20:	3710      	adds	r7, #16
 8000e22:	46bd      	mov	sp, r7
 8000e24:	bd80      	pop	{r7, pc}
 8000e26:	bf00      	nop
 8000e28:	20000008 	.word	0x20000008

08000e2c <__NVIC_SetPriorityGrouping>:
           In case of a conflict between priority grouping and available
           priority bits (__NVIC_PRIO_BITS), the smallest possible priority group is set.
  \param [in]      PriorityGroup  Priority grouping field.
 */
__STATIC_INLINE void __NVIC_SetPriorityGrouping(uint32_t PriorityGroup)
{
 8000e2c:	b480      	push	{r7}
 8000e2e:	b085      	sub	sp, #20
 8000e30:	af00      	add	r7, sp, #0
 8000e32:	6078      	str	r0, [r7, #4]
  uint32_t reg_value;
  uint32_t PriorityGroupTmp = (PriorityGroup & (uint32_t)0x07UL);             /* only values 0..7 are used          */
 8000e34:	687b      	ldr	r3, [r7, #4]
 8000e36:	f003 0307 	and.w	r3, r3, #7
 8000e3a:	60fb      	str	r3, [r7, #12]

  reg_value  =  SCB->AIRCR;                                                   /* read old register configuration    */
 8000e3c:	4b0c      	ldr	r3, [pc, #48]	; (8000e70 <__NVIC_SetPriorityGrouping+0x44>)
 8000e3e:	68db      	ldr	r3, [r3, #12]
 8000e40:	60bb      	str	r3, [r7, #8]
  reg_value &= ~((uint32_t)(SCB_AIRCR_VECTKEY_Msk | SCB_AIRCR_PRIGROUP_Msk)); /* clear bits to change               */
 8000e42:	68ba      	ldr	r2, [r7, #8]
 8000e44:	f64f 03ff 	movw	r3, #63743	; 0xf8ff
 8000e48:	4013      	ands	r3, r2
 8000e4a:	60bb      	str	r3, [r7, #8]
  reg_value  =  (reg_value                                   |
                ((uint32_t)0x5FAUL << SCB_AIRCR_VECTKEY_Pos) |
                (PriorityGroupTmp << SCB_AIRCR_PRIGROUP_Pos)  );              /* Insert write key and priority group */
 8000e4c:	68fb      	ldr	r3, [r7, #12]
 8000e4e:	021a      	lsls	r2, r3, #8
                ((uint32_t)0x5FAUL << SCB_AIRCR_VECTKEY_Pos) |
 8000e50:	68bb      	ldr	r3, [r7, #8]
 8000e52:	4313      	orrs	r3, r2
  reg_value  =  (reg_value                                   |
 8000e54:	f043 63bf 	orr.w	r3, r3, #100139008	; 0x5f80000
 8000e58:	f443 3300 	orr.w	r3, r3, #131072	; 0x20000
 8000e5c:	60bb      	str	r3, [r7, #8]
  SCB->AIRCR =  reg_value;
 8000e5e:	4a04      	ldr	r2, [pc, #16]	; (8000e70 <__NVIC_SetPriorityGrouping+0x44>)
 8000e60:	68bb      	ldr	r3, [r7, #8]
 8000e62:	60d3      	str	r3, [r2, #12]
}
 8000e64:	bf00      	nop
 8000e66:	3714      	adds	r7, #20
 8000e68:	46bd      	mov	sp, r7
 8000e6a:	f85d 7b04 	ldr.w	r7, [sp], #4
 8000e6e:	4770      	bx	lr
 8000e70:	e000ed00 	.word	0xe000ed00

08000e74 <__NVIC_GetPriorityGrouping>:
  \brief   Get Priority Grouping
  \details Reads the priority grouping field from the NVIC Interrupt Controller.
  \return                Priority grouping field (SCB->AIRCR [10:8] PRIGROUP field).
 */
__STATIC_INLINE uint32_t __NVIC_GetPriorityGrouping(void)
{
 8000e74:	b480      	push	{r7}
 8000e76:	af00      	add	r7, sp, #0
  return ((uint32_t)((SCB->AIRCR & SCB_AIRCR_PRIGROUP_Msk) >> SCB_AIRCR_PRIGROUP_Pos));
 8000e78:	4b04      	ldr	r3, [pc, #16]	; (8000e8c <__NVIC_GetPriorityGrouping+0x18>)
 8000e7a:	68db      	ldr	r3, [r3, #12]
 8000e7c:	0a1b      	lsrs	r3, r3, #8
 8000e7e:	f003 0307 	and.w	r3, r3, #7
}
 8000e82:	4618      	mov	r0, r3
 8000e84:	46bd      	mov	sp, r7
 8000e86:	f85d 7b04 	ldr.w	r7, [sp], #4
 8000e8a:	4770      	bx	lr
 8000e8c:	e000ed00 	.word	0xe000ed00

08000e90 <__NVIC_EnableIRQ>:
  \details Enables a device specific interrupt in the NVIC interrupt controller.
  \param [in]      IRQn  Device specific interrupt number.
  \note    IRQn must not be negative.
 */
__STATIC_INLINE void __NVIC_EnableIRQ(IRQn_Type IRQn)
{
 8000e90:	b480      	push	{r7}
 8000e92:	b083      	sub	sp, #12
 8000e94:	af00      	add	r7, sp, #0
 8000e96:	4603      	mov	r3, r0
 8000e98:	71fb      	strb	r3, [r7, #7]
  if ((int32_t)(IRQn) >= 0)
 8000e9a:	f997 3007 	ldrsb.w	r3, [r7, #7]
 8000e9e:	2b00      	cmp	r3, #0
 8000ea0:	db0b      	blt.n	8000eba <__NVIC_EnableIRQ+0x2a>
  {
    NVIC->ISER[(((uint32_t)IRQn) >> 5UL)] = (uint32_t)(1UL << (((uint32_t)IRQn) & 0x1FUL));
 8000ea2:	79fb      	ldrb	r3, [r7, #7]
 8000ea4:	f003 021f 	and.w	r2, r3, #31
 8000ea8:	4907      	ldr	r1, [pc, #28]	; (8000ec8 <__NVIC_EnableIRQ+0x38>)
 8000eaa:	f997 3007 	ldrsb.w	r3, [r7, #7]
 8000eae:	095b      	lsrs	r3, r3, #5
 8000eb0:	2001      	movs	r0, #1
 8000eb2:	fa00 f202 	lsl.w	r2, r0, r2
 8000eb6:	f841 2023 	str.w	r2, [r1, r3, lsl #2]
  }
}
 8000eba:	bf00      	nop
 8000ebc:	370c      	adds	r7, #12
 8000ebe:	46bd      	mov	sp, r7
 8000ec0:	f85d 7b04 	ldr.w	r7, [sp], #4
 8000ec4:	4770      	bx	lr
 8000ec6:	bf00      	nop
 8000ec8:	e000e100 	.word	0xe000e100

08000ecc <__NVIC_SetPriority>:
  \param [in]      IRQn  Interrupt number.
  \param [in]  priority  Priority to set.
  \note    The priority cannot be set for every processor exception.
 */
__STATIC_INLINE void __NVIC_SetPriority(IRQn_Type IRQn, uint32_t priority)
{
 8000ecc:	b480      	push	{r7}
 8000ece:	b083      	sub	sp, #12
 8000ed0:	af00      	add	r7, sp, #0
 8000ed2:	4603      	mov	r3, r0
 8000ed4:	6039      	str	r1, [r7, #0]
 8000ed6:	71fb      	strb	r3, [r7, #7]
  if ((int32_t)(IRQn) >= 0)
 8000ed8:	f997 3007 	ldrsb.w	r3, [r7, #7]
 8000edc:	2b00      	cmp	r3, #0
 8000ede:	db0a      	blt.n	8000ef6 <__NVIC_SetPriority+0x2a>
  {
    NVIC->IP[((uint32_t)IRQn)]               = (uint8_t)((priority << (8U - __NVIC_PRIO_BITS)) & (uint32_t)0xFFUL);
 8000ee0:	683b      	ldr	r3, [r7, #0]
 8000ee2:	b2da      	uxtb	r2, r3
 8000ee4:	490c      	ldr	r1, [pc, #48]	; (8000f18 <__NVIC_SetPriority+0x4c>)
 8000ee6:	f997 3007 	ldrsb.w	r3, [r7, #7]
 8000eea:	0112      	lsls	r2, r2, #4
 8000eec:	b2d2      	uxtb	r2, r2
 8000eee:	440b      	add	r3, r1
 8000ef0:	f883 2300 	strb.w	r2, [r3, #768]	; 0x300
  }
  else
  {
    SCB->SHP[(((uint32_t)IRQn) & 0xFUL)-4UL] = (uint8_t)((priority << (8U - __NVIC_PRIO_BITS)) & (uint32_t)0xFFUL);
  }
}
 8000ef4:	e00a      	b.n	8000f0c <__NVIC_SetPriority+0x40>
    SCB->SHP[(((uint32_t)IRQn) & 0xFUL)-4UL] = (uint8_t)((priority << (8U - __NVIC_PRIO_BITS)) & (uint32_t)0xFFUL);
 8000ef6:	683b      	ldr	r3, [r7, #0]
 8000ef8:	b2da      	uxtb	r2, r3
 8000efa:	4908      	ldr	r1, [pc, #32]	; (8000f1c <__NVIC_SetPriority+0x50>)
 8000efc:	79fb      	ldrb	r3, [r7, #7]
 8000efe:	f003 030f 	and.w	r3, r3, #15
 8000f02:	3b04      	subs	r3, #4
 8000f04:	0112      	lsls	r2, r2, #4
 8000f06:	b2d2      	uxtb	r2, r2
 8000f08:	440b      	add	r3, r1
 8000f0a:	761a      	strb	r2, [r3, #24]
}
 8000f0c:	bf00      	nop
 8000f0e:	370c      	adds	r7, #12
 8000f10:	46bd      	mov	sp, r7
 8000f12:	f85d 7b04 	ldr.w	r7, [sp], #4
 8000f16:	4770      	bx	lr
 8000f18:	e000e100 	.word	0xe000e100
 8000f1c:	e000ed00 	.word	0xe000ed00

08000f20 <NVIC_EncodePriority>:
  \param [in]   PreemptPriority  Preemptive priority value (starting from 0).
  \param [in]       SubPriority  Subpriority value (starting from 0).
  \return                        Encoded priority. Value can be used in the function \ref NVIC_SetPriority().
 */
__STATIC_INLINE uint32_t NVIC_EncodePriority (uint32_t PriorityGroup, uint32_t PreemptPriority, uint32_t SubPriority)
{
 8000f20:	b480      	push	{r7}
 8000f22:	b089      	sub	sp, #36	; 0x24
 8000f24:	af00      	add	r7, sp, #0
 8000f26:	60f8      	str	r0, [r7, #12]
 8000f28:	60b9      	str	r1, [r7, #8]
 8000f2a:	607a      	str	r2, [r7, #4]
  uint32_t PriorityGroupTmp = (PriorityGroup & (uint32_t)0x07UL);   /* only values 0..7 are used          */
 8000f2c:	68fb      	ldr	r3, [r7, #12]
 8000f2e:	f003 0307 	and.w	r3, r3, #7
 8000f32:	61fb      	str	r3, [r7, #28]
  uint32_t PreemptPriorityBits;
  uint32_t SubPriorityBits;

  PreemptPriorityBits = ((7UL - PriorityGroupTmp) > (uint32_t)(__NVIC_PRIO_BITS)) ? (uint32_t)(__NVIC_PRIO_BITS) : (uint32_t)(7UL - PriorityGroupTmp);
 8000f34:	69fb      	ldr	r3, [r7, #28]
 8000f36:	f1c3 0307 	rsb	r3, r3, #7
 8000f3a:	2b04      	cmp	r3, #4
 8000f3c:	bf28      	it	cs
 8000f3e:	2304      	movcs	r3, #4
 8000f40:	61bb      	str	r3, [r7, #24]
  SubPriorityBits     = ((PriorityGroupTmp + (uint32_t)(__NVIC_PRIO_BITS)) < (uint32_t)7UL) ? (uint32_t)0UL : (uint32_t)((PriorityGroupTmp - 7UL) + (uint32_t)(__NVIC_PRIO_BITS));
 8000f42:	69fb      	ldr	r3, [r7, #28]
 8000f44:	3304      	adds	r3, #4
 8000f46:	2b06      	cmp	r3, #6
 8000f48:	d902      	bls.n	8000f50 <NVIC_EncodePriority+0x30>
 8000f4a:	69fb      	ldr	r3, [r7, #28]
 8000f4c:	3b03      	subs	r3, #3
 8000f4e:	e000      	b.n	8000f52 <NVIC_EncodePriority+0x32>
 8000f50:	2300      	movs	r3, #0
 8000f52:	617b      	str	r3, [r7, #20]

  return (
           ((PreemptPriority & (uint32_t)((1UL << (PreemptPriorityBits)) - 1UL)) << SubPriorityBits) |
 8000f54:	f04f 32ff 	mov.w	r2, #4294967295	; 0xffffffff
 8000f58:	69bb      	ldr	r3, [r7, #24]
 8000f5a:	fa02 f303 	lsl.w	r3, r2, r3
 8000f5e:	43da      	mvns	r2, r3
 8000f60:	68bb      	ldr	r3, [r7, #8]
 8000f62:	401a      	ands	r2, r3
 8000f64:	697b      	ldr	r3, [r7, #20]
 8000f66:	409a      	lsls	r2, r3
           ((SubPriority     & (uint32_t)((1UL << (SubPriorityBits    )) - 1UL)))
 8000f68:	f04f 31ff 	mov.w	r1, #4294967295	; 0xffffffff
 8000f6c:	697b      	ldr	r3, [r7, #20]
 8000f6e:	fa01 f303 	lsl.w	r3, r1, r3
 8000f72:	43d9      	mvns	r1, r3
 8000f74:	687b      	ldr	r3, [r7, #4]
 8000f76:	400b      	ands	r3, r1
           ((PreemptPriority & (uint32_t)((1UL << (PreemptPriorityBits)) - 1UL)) << SubPriorityBits) |
 8000f78:	4313      	orrs	r3, r2
         );
}
 8000f7a:	4618      	mov	r0, r3
 8000f7c:	3724      	adds	r7, #36	; 0x24
 8000f7e:	46bd      	mov	sp, r7
 8000f80:	f85d 7b04 	ldr.w	r7, [sp], #4
 8000f84:	4770      	bx	lr
	...

08000f88 <SysTick_Config>:
  \note    When the variable <b>__Vendor_SysTickConfig</b> is set to 1, then the
           function <b>SysTick_Config</b> is not included. In this case, the file <b><i>device</i>.h</b>
           must contain a vendor-specific implementation of this function.
 */
__STATIC_INLINE uint32_t SysTick_Config(uint32_t ticks)
{
 8000f88:	b580      	push	{r7, lr}
 8000f8a:	b082      	sub	sp, #8
 8000f8c:	af00      	add	r7, sp, #0
 8000f8e:	6078      	str	r0, [r7, #4]
  if ((ticks - 1UL) > SysTick_LOAD_RELOAD_Msk)
 8000f90:	687b      	ldr	r3, [r7, #4]
 8000f92:	3b01      	subs	r3, #1
 8000f94:	f1b3 7f80 	cmp.w	r3, #16777216	; 0x1000000
 8000f98:	d301      	bcc.n	8000f9e <SysTick_Config+0x16>
  {
    return (1UL);                                                   /* Reload value impossible */
 8000f9a:	2301      	movs	r3, #1
 8000f9c:	e00f      	b.n	8000fbe <SysTick_Config+0x36>
  }

  SysTick->LOAD  = (uint32_t)(ticks - 1UL);                         /* set reload register */
 8000f9e:	4a0a      	ldr	r2, [pc, #40]	; (8000fc8 <SysTick_Config+0x40>)
 8000fa0:	687b      	ldr	r3, [r7, #4]
 8000fa2:	3b01      	subs	r3, #1
 8000fa4:	6053      	str	r3, [r2, #4]
  NVIC_SetPriority (SysTick_IRQn, (1UL << __NVIC_PRIO_BITS) - 1UL); /* set Priority for Systick Interrupt */
 8000fa6:	210f      	movs	r1, #15
 8000fa8:	f04f 30ff 	mov.w	r0, #4294967295	; 0xffffffff
 8000fac:	f7ff ff8e 	bl	8000ecc <__NVIC_SetPriority>
  SysTick->VAL   = 0UL;                                             /* Load the SysTick Counter Value */
 8000fb0:	4b05      	ldr	r3, [pc, #20]	; (8000fc8 <SysTick_Config+0x40>)
 8000fb2:	2200      	movs	r2, #0
 8000fb4:	609a      	str	r2, [r3, #8]
  SysTick->CTRL  = SysTick_CTRL_CLKSOURCE_Msk |
 8000fb6:	4b04      	ldr	r3, [pc, #16]	; (8000fc8 <SysTick_Config+0x40>)
 8000fb8:	2207      	movs	r2, #7
 8000fba:	601a      	str	r2, [r3, #0]
                   SysTick_CTRL_TICKINT_Msk   |
                   SysTick_CTRL_ENABLE_Msk;                         /* Enable SysTick IRQ and SysTick Timer */
  return (0UL);                                                     /* Function successful */
 8000fbc:	2300      	movs	r3, #0
}
 8000fbe:	4618      	mov	r0, r3
 8000fc0:	3708      	adds	r7, #8
 8000fc2:	46bd      	mov	sp, r7
 8000fc4:	bd80      	pop	{r7, pc}
 8000fc6:	bf00      	nop
 8000fc8:	e000e010 	.word	0xe000e010

08000fcc <HAL_NVIC_SetPriorityGrouping>:
  * @note   When the NVIC_PriorityGroup_0 is selected, IRQ preemption is no more possible. 
  *         The pending IRQ priority will be managed only by the subpriority. 
  * @retval None
  */
void HAL_NVIC_SetPriorityGrouping(uint32_t PriorityGroup)
{
 8000fcc:	b580      	push	{r7, lr}
 8000fce:	b082      	sub	sp, #8
 8000fd0:	af00      	add	r7, sp, #0
 8000fd2:	6078      	str	r0, [r7, #4]
  /* Check the parameters */
  assert_param(IS_NVIC_PRIORITY_GROUP(PriorityGroup));
  
  /* Set the PRIGROUP[10:8] bits according to the PriorityGroup parameter value */
  NVIC_SetPriorityGrouping(PriorityGroup);
 8000fd4:	6878      	ldr	r0, [r7, #4]
 8000fd6:	f7ff ff29 	bl	8000e2c <__NVIC_SetPriorityGrouping>
}
 8000fda:	bf00      	nop
 8000fdc:	3708      	adds	r7, #8
 8000fde:	46bd      	mov	sp, r7
 8000fe0:	bd80      	pop	{r7, pc}

08000fe2 <HAL_NVIC_SetPriority>:
  *         This parameter can be a value between 0 and 15
  *         A lower priority value indicates a higher priority.          
  * @retval None
  */
void HAL_NVIC_SetPriority(IRQn_Type IRQn, uint32_t PreemptPriority, uint32_t SubPriority)
{ 
 8000fe2:	b580      	push	{r7, lr}
 8000fe4:	b086      	sub	sp, #24
 8000fe6:	af00      	add	r7, sp, #0
 8000fe8:	4603      	mov	r3, r0
 8000fea:	60b9      	str	r1, [r7, #8]
 8000fec:	607a      	str	r2, [r7, #4]
 8000fee:	73fb      	strb	r3, [r7, #15]
  uint32_t prioritygroup = 0x00U;
 8000ff0:	2300      	movs	r3, #0
 8000ff2:	617b      	str	r3, [r7, #20]
  
  /* Check the parameters */
  assert_param(IS_NVIC_SUB_PRIORITY(SubPriority));
  assert_param(IS_NVIC_PREEMPTION_PRIORITY(PreemptPriority));
  
  prioritygroup = NVIC_GetPriorityGrouping();
 8000ff4:	f7ff ff3e 	bl	8000e74 <__NVIC_GetPriorityGrouping>
 8000ff8:	6178      	str	r0, [r7, #20]
  
  NVIC_SetPriority(IRQn, NVIC_EncodePriority(prioritygroup, PreemptPriority, SubPriority));
 8000ffa:	687a      	ldr	r2, [r7, #4]
 8000ffc:	68b9      	ldr	r1, [r7, #8]
 8000ffe:	6978      	ldr	r0, [r7, #20]
 8001000:	f7ff ff8e 	bl	8000f20 <NVIC_EncodePriority>
 8001004:	4602      	mov	r2, r0
 8001006:	f997 300f 	ldrsb.w	r3, [r7, #15]
 800100a:	4611      	mov	r1, r2
 800100c:	4618      	mov	r0, r3
 800100e:	f7ff ff5d 	bl	8000ecc <__NVIC_SetPriority>
}
 8001012:	bf00      	nop
 8001014:	3718      	adds	r7, #24
 8001016:	46bd      	mov	sp, r7
 8001018:	bd80      	pop	{r7, pc}

0800101a <HAL_NVIC_EnableIRQ>:
  *         This parameter can be an enumerator of IRQn_Type enumeration
  *         (For the complete STM32 Devices IRQ Channels list, please refer to the appropriate CMSIS device file (stm32f4xxxx.h))
  * @retval None
  */
void HAL_NVIC_EnableIRQ(IRQn_Type IRQn)
{
 800101a:	b580      	push	{r7, lr}
 800101c:	b082      	sub	sp, #8
 800101e:	af00      	add	r7, sp, #0
 8001020:	4603      	mov	r3, r0
 8001022:	71fb      	strb	r3, [r7, #7]
  /* Check the parameters */
  assert_param(IS_NVIC_DEVICE_IRQ(IRQn));
  
  /* Enable interrupt */
  NVIC_EnableIRQ(IRQn);
 8001024:	f997 3007 	ldrsb.w	r3, [r7, #7]
 8001028:	4618      	mov	r0, r3
 800102a:	f7ff ff31 	bl	8000e90 <__NVIC_EnableIRQ>
}
 800102e:	bf00      	nop
 8001030:	3708      	adds	r7, #8
 8001032:	46bd      	mov	sp, r7
 8001034:	bd80      	pop	{r7, pc}

08001036 <HAL_SYSTICK_Config>:
  * @param  TicksNumb Specifies the ticks Number of ticks between two interrupts.
  * @retval status:  - 0  Function succeeded.
  *                  - 1  Function failed.
  */
uint32_t HAL_SYSTICK_Config(uint32_t TicksNumb)
{
 8001036:	b580      	push	{r7, lr}
 8001038:	b082      	sub	sp, #8
 800103a:	af00      	add	r7, sp, #0
 800103c:	6078      	str	r0, [r7, #4]
   return SysTick_Config(TicksNumb);
 800103e:	6878      	ldr	r0, [r7, #4]
 8001040:	f7ff ffa2 	bl	8000f88 <SysTick_Config>
 8001044:	4603      	mov	r3, r0
}
 8001046:	4618      	mov	r0, r3
 8001048:	3708      	adds	r7, #8
 800104a:	46bd      	mov	sp, r7
 800104c:	bd80      	pop	{r7, pc}
	...

08001050 <HAL_GPIO_Init>:
  * @param  GPIO_Init pointer to a GPIO_InitTypeDef structure that contains
  *         the configuration information for the specified GPIO peripheral.
  * @retval None
  */
void HAL_GPIO_Init(GPIO_TypeDef  *GPIOx, GPIO_InitTypeDef *GPIO_Init)
{
 8001050:	b480      	push	{r7}
 8001052:	b089      	sub	sp, #36	; 0x24
 8001054:	af00      	add	r7, sp, #0
 8001056:	6078      	str	r0, [r7, #4]
 8001058:	6039      	str	r1, [r7, #0]
  uint32_t position;
  uint32_t ioposition = 0x00U;
 800105a:	2300      	movs	r3, #0
 800105c:	617b      	str	r3, [r7, #20]
  uint32_t iocurrent = 0x00U;
 800105e:	2300      	movs	r3, #0
 8001060:	613b      	str	r3, [r7, #16]
  uint32_t temp = 0x00U;
 8001062:	2300      	movs	r3, #0
 8001064:	61bb      	str	r3, [r7, #24]
  assert_param(IS_GPIO_ALL_INSTANCE(GPIOx));
  assert_param(IS_GPIO_PIN(GPIO_Init->Pin));
  assert_param(IS_GPIO_MODE(GPIO_Init->Mode));

  /* Configure the port pins */
  for(position = 0U; position < GPIO_NUMBER; position++)
 8001066:	2300      	movs	r3, #0
 8001068:	61fb      	str	r3, [r7, #28]
 800106a:	e16b      	b.n	8001344 <HAL_GPIO_Init+0x2f4>
  {
    /* Get the IO position */
    ioposition = 0x01U << position;
 800106c:	2201      	movs	r2, #1
 800106e:	69fb      	ldr	r3, [r7, #28]
 8001070:	fa02 f303 	lsl.w	r3, r2, r3
 8001074:	617b      	str	r3, [r7, #20]
    /* Get the current IO position */
    iocurrent = (uint32_t)(GPIO_Init->Pin) & ioposition;
 8001076:	683b      	ldr	r3, [r7, #0]
 8001078:	681b      	ldr	r3, [r3, #0]
 800107a:	697a      	ldr	r2, [r7, #20]
 800107c:	4013      	ands	r3, r2
 800107e:	613b      	str	r3, [r7, #16]

    if(iocurrent == ioposition)
 8001080:	693a      	ldr	r2, [r7, #16]
 8001082:	697b      	ldr	r3, [r7, #20]
 8001084:	429a      	cmp	r2, r3
 8001086:	f040 815a 	bne.w	800133e <HAL_GPIO_Init+0x2ee>
    {
      /*--------------------- GPIO Mode Configuration ------------------------*/
      /* In case of Output or Alternate function mode selection */
      if(((GPIO_Init->Mode & GPIO_MODE) == MODE_OUTPUT) || \
 800108a:	683b      	ldr	r3, [r7, #0]
 800108c:	685b      	ldr	r3, [r3, #4]
 800108e:	f003 0303 	and.w	r3, r3, #3
 8001092:	2b01      	cmp	r3, #1
 8001094:	d005      	beq.n	80010a2 <HAL_GPIO_Init+0x52>
          (GPIO_Init->Mode & GPIO_MODE) == MODE_AF)
 8001096:	683b      	ldr	r3, [r7, #0]
 8001098:	685b      	ldr	r3, [r3, #4]
 800109a:	f003 0303 	and.w	r3, r3, #3
      if(((GPIO_Init->Mode & GPIO_MODE) == MODE_OUTPUT) || \
 800109e:	2b02      	cmp	r3, #2
 80010a0:	d130      	bne.n	8001104 <HAL_GPIO_Init+0xb4>
      {
        /* Check the Speed parameter */
        assert_param(IS_GPIO_SPEED(GPIO_Init->Speed));
        /* Configure the IO Speed */
        temp = GPIOx->OSPEEDR; 
 80010a2:	687b      	ldr	r3, [r7, #4]
 80010a4:	689b      	ldr	r3, [r3, #8]
 80010a6:	61bb      	str	r3, [r7, #24]
        temp &= ~(GPIO_OSPEEDER_OSPEEDR0 << (position * 2U));
 80010a8:	69fb      	ldr	r3, [r7, #28]
 80010aa:	005b      	lsls	r3, r3, #1
 80010ac:	2203      	movs	r2, #3
 80010ae:	fa02 f303 	lsl.w	r3, r2, r3
 80010b2:	43db      	mvns	r3, r3
 80010b4:	69ba      	ldr	r2, [r7, #24]
 80010b6:	4013      	ands	r3, r2
 80010b8:	61bb      	str	r3, [r7, #24]
        temp |= (GPIO_Init->Speed << (position * 2U));
 80010ba:	683b      	ldr	r3, [r7, #0]
 80010bc:	68da      	ldr	r2, [r3, #12]
 80010be:	69fb      	ldr	r3, [r7, #28]
 80010c0:	005b      	lsls	r3, r3, #1
 80010c2:	fa02 f303 	lsl.w	r3, r2, r3
 80010c6:	69ba      	ldr	r2, [r7, #24]
 80010c8:	4313      	orrs	r3, r2
 80010ca:	61bb      	str	r3, [r7, #24]
        GPIOx->OSPEEDR = temp;
 80010cc:	687b      	ldr	r3, [r7, #4]
 80010ce:	69ba      	ldr	r2, [r7, #24]
 80010d0:	609a      	str	r2, [r3, #8]

        /* Configure the IO Output Type */
        temp = GPIOx->OTYPER;
 80010d2:	687b      	ldr	r3, [r7, #4]
 80010d4:	685b      	ldr	r3, [r3, #4]
 80010d6:	61bb      	str	r3, [r7, #24]
        temp &= ~(GPIO_OTYPER_OT_0 << position) ;
 80010d8:	2201      	movs	r2, #1
 80010da:	69fb      	ldr	r3, [r7, #28]
 80010dc:	fa02 f303 	lsl.w	r3, r2, r3
 80010e0:	43db      	mvns	r3, r3
 80010e2:	69ba      	ldr	r2, [r7, #24]
 80010e4:	4013      	ands	r3, r2
 80010e6:	61bb      	str	r3, [r7, #24]
        temp |= (((GPIO_Init->Mode & OUTPUT_TYPE) >> OUTPUT_TYPE_Pos) << position);
 80010e8:	683b      	ldr	r3, [r7, #0]
 80010ea:	685b      	ldr	r3, [r3, #4]
 80010ec:	091b      	lsrs	r3, r3, #4
 80010ee:	f003 0201 	and.w	r2, r3, #1
 80010f2:	69fb      	ldr	r3, [r7, #28]
 80010f4:	fa02 f303 	lsl.w	r3, r2, r3
 80010f8:	69ba      	ldr	r2, [r7, #24]
 80010fa:	4313      	orrs	r3, r2
 80010fc:	61bb      	str	r3, [r7, #24]
        GPIOx->OTYPER = temp;
 80010fe:	687b      	ldr	r3, [r7, #4]
 8001100:	69ba      	ldr	r2, [r7, #24]
 8001102:	605a      	str	r2, [r3, #4]
       }

      if((GPIO_Init->Mode & GPIO_MODE) != MODE_ANALOG)
 8001104:	683b      	ldr	r3, [r7, #0]
 8001106:	685b      	ldr	r3, [r3, #4]
 8001108:	f003 0303 	and.w	r3, r3, #3
 800110c:	2b03      	cmp	r3, #3
 800110e:	d017      	beq.n	8001140 <HAL_GPIO_Init+0xf0>
      {
        /* Check the parameters */
        assert_param(IS_GPIO_PULL(GPIO_Init->Pull));
        
        /* Activate the Pull-up or Pull down resistor for the current IO */
        temp = GPIOx->PUPDR;
 8001110:	687b      	ldr	r3, [r7, #4]
 8001112:	68db      	ldr	r3, [r3, #12]
 8001114:	61bb      	str	r3, [r7, #24]
        temp &= ~(GPIO_PUPDR_PUPDR0 << (position * 2U));
 8001116:	69fb      	ldr	r3, [r7, #28]
 8001118:	005b      	lsls	r3, r3, #1
 800111a:	2203      	movs	r2, #3
 800111c:	fa02 f303 	lsl.w	r3, r2, r3
 8001120:	43db      	mvns	r3, r3
 8001122:	69ba      	ldr	r2, [r7, #24]
 8001124:	4013      	ands	r3, r2
 8001126:	61bb      	str	r3, [r7, #24]
        temp |= ((GPIO_Init->Pull) << (position * 2U));
 8001128:	683b      	ldr	r3, [r7, #0]
 800112a:	689a      	ldr	r2, [r3, #8]
 800112c:	69fb      	ldr	r3, [r7, #28]
 800112e:	005b      	lsls	r3, r3, #1
 8001130:	fa02 f303 	lsl.w	r3, r2, r3
 8001134:	69ba      	ldr	r2, [r7, #24]
 8001136:	4313      	orrs	r3, r2
 8001138:	61bb      	str	r3, [r7, #24]
        GPIOx->PUPDR = temp;
 800113a:	687b      	ldr	r3, [r7, #4]
 800113c:	69ba      	ldr	r2, [r7, #24]
 800113e:	60da      	str	r2, [r3, #12]
      }

      /* In case of Alternate function mode selection */
      if((GPIO_Init->Mode & GPIO_MODE) == MODE_AF)
 8001140:	683b      	ldr	r3, [r7, #0]
 8001142:	685b      	ldr	r3, [r3, #4]
 8001144:	f003 0303 	and.w	r3, r3, #3
 8001148:	2b02      	cmp	r3, #2
 800114a:	d123      	bne.n	8001194 <HAL_GPIO_Init+0x144>
      {
        /* Check the Alternate function parameter */
        assert_param(IS_GPIO_AF(GPIO_Init->Alternate));
        /* Configure Alternate function mapped with the current IO */
        temp = GPIOx->AFR[position >> 3U];
 800114c:	69fb      	ldr	r3, [r7, #28]
 800114e:	08da      	lsrs	r2, r3, #3
 8001150:	687b      	ldr	r3, [r7, #4]
 8001152:	3208      	adds	r2, #8
 8001154:	f853 3022 	ldr.w	r3, [r3, r2, lsl #2]
 8001158:	61bb      	str	r3, [r7, #24]
        temp &= ~(0xFU << ((uint32_t)(position & 0x07U) * 4U)) ;
 800115a:	69fb      	ldr	r3, [r7, #28]
 800115c:	f003 0307 	and.w	r3, r3, #7
 8001160:	009b      	lsls	r3, r3, #2
 8001162:	220f      	movs	r2, #15
 8001164:	fa02 f303 	lsl.w	r3, r2, r3
 8001168:	43db      	mvns	r3, r3
 800116a:	69ba      	ldr	r2, [r7, #24]
 800116c:	4013      	ands	r3, r2
 800116e:	61bb      	str	r3, [r7, #24]
        temp |= ((uint32_t)(GPIO_Init->Alternate) << (((uint32_t)position & 0x07U) * 4U));
 8001170:	683b      	ldr	r3, [r7, #0]
 8001172:	691a      	ldr	r2, [r3, #16]
 8001174:	69fb      	ldr	r3, [r7, #28]
 8001176:	f003 0307 	and.w	r3, r3, #7
 800117a:	009b      	lsls	r3, r3, #2
 800117c:	fa02 f303 	lsl.w	r3, r2, r3
 8001180:	69ba      	ldr	r2, [r7, #24]
 8001182:	4313      	orrs	r3, r2
 8001184:	61bb      	str	r3, [r7, #24]
        GPIOx->AFR[position >> 3U] = temp;
 8001186:	69fb      	ldr	r3, [r7, #28]
 8001188:	08da      	lsrs	r2, r3, #3
 800118a:	687b      	ldr	r3, [r7, #4]
 800118c:	3208      	adds	r2, #8
 800118e:	69b9      	ldr	r1, [r7, #24]
 8001190:	f843 1022 	str.w	r1, [r3, r2, lsl #2]
      }

      /* Configure IO Direction mode (Input, Output, Alternate or Analog) */
      temp = GPIOx->MODER;
 8001194:	687b      	ldr	r3, [r7, #4]
 8001196:	681b      	ldr	r3, [r3, #0]
 8001198:	61bb      	str	r3, [r7, #24]
      temp &= ~(GPIO_MODER_MODER0 << (position * 2U));
 800119a:	69fb      	ldr	r3, [r7, #28]
 800119c:	005b      	lsls	r3, r3, #1
 800119e:	2203      	movs	r2, #3
 80011a0:	fa02 f303 	lsl.w	r3, r2, r3
 80011a4:	43db      	mvns	r3, r3
 80011a6:	69ba      	ldr	r2, [r7, #24]
 80011a8:	4013      	ands	r3, r2
 80011aa:	61bb      	str	r3, [r7, #24]
      temp |= ((GPIO_Init->Mode & GPIO_MODE) << (position * 2U));
 80011ac:	683b      	ldr	r3, [r7, #0]
 80011ae:	685b      	ldr	r3, [r3, #4]
 80011b0:	f003 0203 	and.w	r2, r3, #3
 80011b4:	69fb      	ldr	r3, [r7, #28]
 80011b6:	005b      	lsls	r3, r3, #1
 80011b8:	fa02 f303 	lsl.w	r3, r2, r3
 80011bc:	69ba      	ldr	r2, [r7, #24]
 80011be:	4313      	orrs	r3, r2
 80011c0:	61bb      	str	r3, [r7, #24]
      GPIOx->MODER = temp;
 80011c2:	687b      	ldr	r3, [r7, #4]
 80011c4:	69ba      	ldr	r2, [r7, #24]
 80011c6:	601a      	str	r2, [r3, #0]

      /*--------------------- EXTI Mode Configuration ------------------------*/
      /* Configure the External Interrupt or event for the current IO */
      if((GPIO_Init->Mode & EXTI_MODE) != 0x00U)
 80011c8:	683b      	ldr	r3, [r7, #0]
 80011ca:	685b      	ldr	r3, [r3, #4]
 80011cc:	f403 3340 	and.w	r3, r3, #196608	; 0x30000
 80011d0:	2b00      	cmp	r3, #0
 80011d2:	f000 80b4 	beq.w	800133e <HAL_GPIO_Init+0x2ee>
      {
        /* Enable SYSCFG Clock */
        __HAL_RCC_SYSCFG_CLK_ENABLE();
 80011d6:	2300      	movs	r3, #0
 80011d8:	60fb      	str	r3, [r7, #12]
 80011da:	4b60      	ldr	r3, [pc, #384]	; (800135c <HAL_GPIO_Init+0x30c>)
 80011dc:	6c5b      	ldr	r3, [r3, #68]	; 0x44
 80011de:	4a5f      	ldr	r2, [pc, #380]	; (800135c <HAL_GPIO_Init+0x30c>)
 80011e0:	f443 4380 	orr.w	r3, r3, #16384	; 0x4000
 80011e4:	6453      	str	r3, [r2, #68]	; 0x44
 80011e6:	4b5d      	ldr	r3, [pc, #372]	; (800135c <HAL_GPIO_Init+0x30c>)
 80011e8:	6c5b      	ldr	r3, [r3, #68]	; 0x44
 80011ea:	f403 4380 	and.w	r3, r3, #16384	; 0x4000
 80011ee:	60fb      	str	r3, [r7, #12]
 80011f0:	68fb      	ldr	r3, [r7, #12]

        temp = SYSCFG->EXTICR[position >> 2U];
 80011f2:	4a5b      	ldr	r2, [pc, #364]	; (8001360 <HAL_GPIO_Init+0x310>)
 80011f4:	69fb      	ldr	r3, [r7, #28]
 80011f6:	089b      	lsrs	r3, r3, #2
 80011f8:	3302      	adds	r3, #2
 80011fa:	f852 3023 	ldr.w	r3, [r2, r3, lsl #2]
 80011fe:	61bb      	str	r3, [r7, #24]
        temp &= ~(0x0FU << (4U * (position & 0x03U)));
 8001200:	69fb      	ldr	r3, [r7, #28]
 8001202:	f003 0303 	and.w	r3, r3, #3
 8001206:	009b      	lsls	r3, r3, #2
 8001208:	220f      	movs	r2, #15
 800120a:	fa02 f303 	lsl.w	r3, r2, r3
 800120e:	43db      	mvns	r3, r3
 8001210:	69ba      	ldr	r2, [r7, #24]
 8001212:	4013      	ands	r3, r2
 8001214:	61bb      	str	r3, [r7, #24]
        temp |= ((uint32_t)(GPIO_GET_INDEX(GPIOx)) << (4U * (position & 0x03U)));
 8001216:	687b      	ldr	r3, [r7, #4]
 8001218:	4a52      	ldr	r2, [pc, #328]	; (8001364 <HAL_GPIO_Init+0x314>)
 800121a:	4293      	cmp	r3, r2
 800121c:	d02b      	beq.n	8001276 <HAL_GPIO_Init+0x226>
 800121e:	687b      	ldr	r3, [r7, #4]
 8001220:	4a51      	ldr	r2, [pc, #324]	; (8001368 <HAL_GPIO_Init+0x318>)
 8001222:	4293      	cmp	r3, r2
 8001224:	d025      	beq.n	8001272 <HAL_GPIO_Init+0x222>
 8001226:	687b      	ldr	r3, [r7, #4]
 8001228:	4a50      	ldr	r2, [pc, #320]	; (800136c <HAL_GPIO_Init+0x31c>)
 800122a:	4293      	cmp	r3, r2
 800122c:	d01f      	beq.n	800126e <HAL_GPIO_Init+0x21e>
 800122e:	687b      	ldr	r3, [r7, #4]
 8001230:	4a4f      	ldr	r2, [pc, #316]	; (8001370 <HAL_GPIO_Init+0x320>)
 8001232:	4293      	cmp	r3, r2
 8001234:	d019      	beq.n	800126a <HAL_GPIO_Init+0x21a>
 8001236:	687b      	ldr	r3, [r7, #4]
 8001238:	4a4e      	ldr	r2, [pc, #312]	; (8001374 <HAL_GPIO_Init+0x324>)
 800123a:	4293      	cmp	r3, r2
 800123c:	d013      	beq.n	8001266 <HAL_GPIO_Init+0x216>
 800123e:	687b      	ldr	r3, [r7, #4]
 8001240:	4a4d      	ldr	r2, [pc, #308]	; (8001378 <HAL_GPIO_Init+0x328>)
 8001242:	4293      	cmp	r3, r2
 8001244:	d00d      	beq.n	8001262 <HAL_GPIO_Init+0x212>
 8001246:	687b      	ldr	r3, [r7, #4]
 8001248:	4a4c      	ldr	r2, [pc, #304]	; (800137c <HAL_GPIO_Init+0x32c>)
 800124a:	4293      	cmp	r3, r2
 800124c:	d007      	beq.n	800125e <HAL_GPIO_Init+0x20e>
 800124e:	687b      	ldr	r3, [r7, #4]
 8001250:	4a4b      	ldr	r2, [pc, #300]	; (8001380 <HAL_GPIO_Init+0x330>)
 8001252:	4293      	cmp	r3, r2
 8001254:	d101      	bne.n	800125a <HAL_GPIO_Init+0x20a>
 8001256:	2307      	movs	r3, #7
 8001258:	e00e      	b.n	8001278 <HAL_GPIO_Init+0x228>
 800125a:	2308      	movs	r3, #8
 800125c:	e00c      	b.n	8001278 <HAL_GPIO_Init+0x228>
 800125e:	2306      	movs	r3, #6
 8001260:	e00a      	b.n	8001278 <HAL_GPIO_Init+0x228>
 8001262:	2305      	movs	r3, #5
 8001264:	e008      	b.n	8001278 <HAL_GPIO_Init+0x228>
 8001266:	2304      	movs	r3, #4
 8001268:	e006      	b.n	8001278 <HAL_GPIO_Init+0x228>
 800126a:	2303      	movs	r3, #3
 800126c:	e004      	b.n	8001278 <HAL_GPIO_Init+0x228>
 800126e:	2302      	movs	r3, #2
 8001270:	e002      	b.n	8001278 <HAL_GPIO_Init+0x228>
 8001272:	2301      	movs	r3, #1
 8001274:	e000      	b.n	8001278 <HAL_GPIO_Init+0x228>
 8001276:	2300      	movs	r3, #0
 8001278:	69fa      	ldr	r2, [r7, #28]
 800127a:	f002 0203 	and.w	r2, r2, #3
 800127e:	0092      	lsls	r2, r2, #2
 8001280:	4093      	lsls	r3, r2
 8001282:	69ba      	ldr	r2, [r7, #24]
 8001284:	4313      	orrs	r3, r2
 8001286:	61bb      	str	r3, [r7, #24]
        SYSCFG->EXTICR[position >> 2U] = temp;
 8001288:	4935      	ldr	r1, [pc, #212]	; (8001360 <HAL_GPIO_Init+0x310>)
 800128a:	69fb      	ldr	r3, [r7, #28]
 800128c:	089b      	lsrs	r3, r3, #2
 800128e:	3302      	adds	r3, #2
 8001290:	69ba      	ldr	r2, [r7, #24]
 8001292:	f841 2023 	str.w	r2, [r1, r3, lsl #2]

        /* Clear Rising Falling edge configuration */
        temp = EXTI->RTSR;
 8001296:	4b3b      	ldr	r3, [pc, #236]	; (8001384 <HAL_GPIO_Init+0x334>)
 8001298:	689b      	ldr	r3, [r3, #8]
 800129a:	61bb      	str	r3, [r7, #24]
        temp &= ~((uint32_t)iocurrent);
 800129c:	693b      	ldr	r3, [r7, #16]
 800129e:	43db      	mvns	r3, r3
 80012a0:	69ba      	ldr	r2, [r7, #24]
 80012a2:	4013      	ands	r3, r2
 80012a4:	61bb      	str	r3, [r7, #24]
        if((GPIO_Init->Mode & TRIGGER_RISING) != 0x00U)
 80012a6:	683b      	ldr	r3, [r7, #0]
 80012a8:	685b      	ldr	r3, [r3, #4]
 80012aa:	f403 1380 	and.w	r3, r3, #1048576	; 0x100000
 80012ae:	2b00      	cmp	r3, #0
 80012b0:	d003      	beq.n	80012ba <HAL_GPIO_Init+0x26a>
        {
          temp |= iocurrent;
 80012b2:	69ba      	ldr	r2, [r7, #24]
 80012b4:	693b      	ldr	r3, [r7, #16]
 80012b6:	4313      	orrs	r3, r2
 80012b8:	61bb      	str	r3, [r7, #24]
        }
        EXTI->RTSR = temp;
 80012ba:	4a32      	ldr	r2, [pc, #200]	; (8001384 <HAL_GPIO_Init+0x334>)
 80012bc:	69bb      	ldr	r3, [r7, #24]
 80012be:	6093      	str	r3, [r2, #8]

        temp = EXTI->FTSR;
 80012c0:	4b30      	ldr	r3, [pc, #192]	; (8001384 <HAL_GPIO_Init+0x334>)
 80012c2:	68db      	ldr	r3, [r3, #12]
 80012c4:	61bb      	str	r3, [r7, #24]
        temp &= ~((uint32_t)iocurrent);
 80012c6:	693b      	ldr	r3, [r7, #16]
 80012c8:	43db      	mvns	r3, r3
 80012ca:	69ba      	ldr	r2, [r7, #24]
 80012cc:	4013      	ands	r3, r2
 80012ce:	61bb      	str	r3, [r7, #24]
        if((GPIO_Init->Mode & TRIGGER_FALLING) != 0x00U)
 80012d0:	683b      	ldr	r3, [r7, #0]
 80012d2:	685b      	ldr	r3, [r3, #4]
 80012d4:	f403 1300 	and.w	r3, r3, #2097152	; 0x200000
 80012d8:	2b00      	cmp	r3, #0
 80012da:	d003      	beq.n	80012e4 <HAL_GPIO_Init+0x294>
        {
          temp |= iocurrent;
 80012dc:	69ba      	ldr	r2, [r7, #24]
 80012de:	693b      	ldr	r3, [r7, #16]
 80012e0:	4313      	orrs	r3, r2
 80012e2:	61bb      	str	r3, [r7, #24]
        }
        EXTI->FTSR = temp;
 80012e4:	4a27      	ldr	r2, [pc, #156]	; (8001384 <HAL_GPIO_Init+0x334>)
 80012e6:	69bb      	ldr	r3, [r7, #24]
 80012e8:	60d3      	str	r3, [r2, #12]

        temp = EXTI->EMR;
 80012ea:	4b26      	ldr	r3, [pc, #152]	; (8001384 <HAL_GPIO_Init+0x334>)
 80012ec:	685b      	ldr	r3, [r3, #4]
 80012ee:	61bb      	str	r3, [r7, #24]
        temp &= ~((uint32_t)iocurrent);
 80012f0:	693b      	ldr	r3, [r7, #16]
 80012f2:	43db      	mvns	r3, r3
 80012f4:	69ba      	ldr	r2, [r7, #24]
 80012f6:	4013      	ands	r3, r2
 80012f8:	61bb      	str	r3, [r7, #24]
        if((GPIO_Init->Mode & EXTI_EVT) != 0x00U)
 80012fa:	683b      	ldr	r3, [r7, #0]
 80012fc:	685b      	ldr	r3, [r3, #4]
 80012fe:	f403 3300 	and.w	r3, r3, #131072	; 0x20000
 8001302:	2b00      	cmp	r3, #0
 8001304:	d003      	beq.n	800130e <HAL_GPIO_Init+0x2be>
        {
          temp |= iocurrent;
 8001306:	69ba      	ldr	r2, [r7, #24]
 8001308:	693b      	ldr	r3, [r7, #16]
 800130a:	4313      	orrs	r3, r2
 800130c:	61bb      	str	r3, [r7, #24]
        }
        EXTI->EMR = temp;
 800130e:	4a1d      	ldr	r2, [pc, #116]	; (8001384 <HAL_GPIO_Init+0x334>)
 8001310:	69bb      	ldr	r3, [r7, #24]
 8001312:	6053      	str	r3, [r2, #4]

        /* Clear EXTI line configuration */
        temp = EXTI->IMR;
 8001314:	4b1b      	ldr	r3, [pc, #108]	; (8001384 <HAL_GPIO_Init+0x334>)
 8001316:	681b      	ldr	r3, [r3, #0]
 8001318:	61bb      	str	r3, [r7, #24]
        temp &= ~((uint32_t)iocurrent);
 800131a:	693b      	ldr	r3, [r7, #16]
 800131c:	43db      	mvns	r3, r3
 800131e:	69ba      	ldr	r2, [r7, #24]
 8001320:	4013      	ands	r3, r2
 8001322:	61bb      	str	r3, [r7, #24]
        if((GPIO_Init->Mode & EXTI_IT) != 0x00U)
 8001324:	683b      	ldr	r3, [r7, #0]
 8001326:	685b      	ldr	r3, [r3, #4]
 8001328:	f403 3380 	and.w	r3, r3, #65536	; 0x10000
 800132c:	2b00      	cmp	r3, #0
 800132e:	d003      	beq.n	8001338 <HAL_GPIO_Init+0x2e8>
        {
          temp |= iocurrent;
 8001330:	69ba      	ldr	r2, [r7, #24]
 8001332:	693b      	ldr	r3, [r7, #16]
 8001334:	4313      	orrs	r3, r2
 8001336:	61bb      	str	r3, [r7, #24]
        }
        EXTI->IMR = temp;
 8001338:	4a12      	ldr	r2, [pc, #72]	; (8001384 <HAL_GPIO_Init+0x334>)
 800133a:	69bb      	ldr	r3, [r7, #24]
 800133c:	6013      	str	r3, [r2, #0]
  for(position = 0U; position < GPIO_NUMBER; position++)
 800133e:	69fb      	ldr	r3, [r7, #28]
 8001340:	3301      	adds	r3, #1
 8001342:	61fb      	str	r3, [r7, #28]
 8001344:	69fb      	ldr	r3, [r7, #28]
 8001346:	2b0f      	cmp	r3, #15
 8001348:	f67f ae90 	bls.w	800106c <HAL_GPIO_Init+0x1c>
      }
    }
  }
}
 800134c:	bf00      	nop
 800134e:	bf00      	nop
 8001350:	3724      	adds	r7, #36	; 0x24
 8001352:	46bd      	mov	sp, r7
 8001354:	f85d 7b04 	ldr.w	r7, [sp], #4
 8001358:	4770      	bx	lr
 800135a:	bf00      	nop
 800135c:	40023800 	.word	0x40023800
 8001360:	40013800 	.word	0x40013800
 8001364:	40020000 	.word	0x40020000
 8001368:	40020400 	.word	0x40020400
 800136c:	40020800 	.word	0x40020800
 8001370:	40020c00 	.word	0x40020c00
 8001374:	40021000 	.word	0x40021000
 8001378:	40021400 	.word	0x40021400
 800137c:	40021800 	.word	0x40021800
 8001380:	40021c00 	.word	0x40021c00
 8001384:	40013c00 	.word	0x40013c00

08001388 <HAL_GPIO_WritePin>:
  *            @arg GPIO_PIN_RESET: to clear the port pin
  *            @arg GPIO_PIN_SET: to set the port pin
  * @retval None
  */
void HAL_GPIO_WritePin(GPIO_TypeDef* GPIOx, uint16_t GPIO_Pin, GPIO_PinState PinState)
{
 8001388:	b480      	push	{r7}
 800138a:	b083      	sub	sp, #12
 800138c:	af00      	add	r7, sp, #0
 800138e:	6078      	str	r0, [r7, #4]
 8001390:	460b      	mov	r3, r1
 8001392:	807b      	strh	r3, [r7, #2]
 8001394:	4613      	mov	r3, r2
 8001396:	707b      	strb	r3, [r7, #1]
  /* Check the parameters */
  assert_param(IS_GPIO_PIN(GPIO_Pin));
  assert_param(IS_GPIO_PIN_ACTION(PinState));

  if(PinState != GPIO_PIN_RESET)
 8001398:	787b      	ldrb	r3, [r7, #1]
 800139a:	2b00      	cmp	r3, #0
 800139c:	d003      	beq.n	80013a6 <HAL_GPIO_WritePin+0x1e>
  {
    GPIOx->BSRR = GPIO_Pin;
 800139e:	887a      	ldrh	r2, [r7, #2]
 80013a0:	687b      	ldr	r3, [r7, #4]
 80013a2:	619a      	str	r2, [r3, #24]
  }
  else
  {
    GPIOx->BSRR = (uint32_t)GPIO_Pin << 16U;
  }
}
 80013a4:	e003      	b.n	80013ae <HAL_GPIO_WritePin+0x26>
    GPIOx->BSRR = (uint32_t)GPIO_Pin << 16U;
 80013a6:	887b      	ldrh	r3, [r7, #2]
 80013a8:	041a      	lsls	r2, r3, #16
 80013aa:	687b      	ldr	r3, [r7, #4]
 80013ac:	619a      	str	r2, [r3, #24]
}
 80013ae:	bf00      	nop
 80013b0:	370c      	adds	r7, #12
 80013b2:	46bd      	mov	sp, r7
 80013b4:	f85d 7b04 	ldr.w	r7, [sp], #4
 80013b8:	4770      	bx	lr
	...

080013bc <HAL_GPIO_EXTI_IRQHandler>:
  * @brief  This function handles EXTI interrupt request.
  * @param  GPIO_Pin Specifies the pins connected EXTI line
  * @retval None
  */
void HAL_GPIO_EXTI_IRQHandler(uint16_t GPIO_Pin)
{
 80013bc:	b580      	push	{r7, lr}
 80013be:	b082      	sub	sp, #8
 80013c0:	af00      	add	r7, sp, #0
 80013c2:	4603      	mov	r3, r0
 80013c4:	80fb      	strh	r3, [r7, #6]
  /* EXTI line interrupt detected */
  if(__HAL_GPIO_EXTI_GET_IT(GPIO_Pin) != RESET)
 80013c6:	4b08      	ldr	r3, [pc, #32]	; (80013e8 <HAL_GPIO_EXTI_IRQHandler+0x2c>)
 80013c8:	695a      	ldr	r2, [r3, #20]
 80013ca:	88fb      	ldrh	r3, [r7, #6]
 80013cc:	4013      	ands	r3, r2
 80013ce:	2b00      	cmp	r3, #0
 80013d0:	d006      	beq.n	80013e0 <HAL_GPIO_EXTI_IRQHandler+0x24>
  {
    __HAL_GPIO_EXTI_CLEAR_IT(GPIO_Pin);
 80013d2:	4a05      	ldr	r2, [pc, #20]	; (80013e8 <HAL_GPIO_EXTI_IRQHandler+0x2c>)
 80013d4:	88fb      	ldrh	r3, [r7, #6]
 80013d6:	6153      	str	r3, [r2, #20]
    HAL_GPIO_EXTI_Callback(GPIO_Pin);
 80013d8:	88fb      	ldrh	r3, [r7, #6]
 80013da:	4618      	mov	r0, r3
 80013dc:	f7ff fb1e 	bl	8000a1c <HAL_GPIO_EXTI_Callback>
  }
}
 80013e0:	bf00      	nop
 80013e2:	3708      	adds	r7, #8
 80013e4:	46bd      	mov	sp, r7
 80013e6:	bd80      	pop	{r7, pc}
 80013e8:	40013c00 	.word	0x40013c00

080013ec <HAL_RCC_OscConfig>:
  *         supported by this API. User should request a transition to HSE Off
  *         first and then HSE On or HSE Bypass.
  * @retval HAL status
  */
__weak HAL_StatusTypeDef HAL_RCC_OscConfig(RCC_OscInitTypeDef  *RCC_OscInitStruct)
{
 80013ec:	b580      	push	{r7, lr}
 80013ee:	b086      	sub	sp, #24
 80013f0:	af00      	add	r7, sp, #0
 80013f2:	6078      	str	r0, [r7, #4]
  uint32_t tickstart, pll_config;

  /* Check Null pointer */
  if(RCC_OscInitStruct == NULL)
 80013f4:	687b      	ldr	r3, [r7, #4]
 80013f6:	2b00      	cmp	r3, #0
 80013f8:	d101      	bne.n	80013fe <HAL_RCC_OscConfig+0x12>
  {
    return HAL_ERROR;
 80013fa:	2301      	movs	r3, #1
 80013fc:	e267      	b.n	80018ce <HAL_RCC_OscConfig+0x4e2>
  }

  /* Check the parameters */
  assert_param(IS_RCC_OSCILLATORTYPE(RCC_OscInitStruct->OscillatorType));
  /*------------------------------- HSE Configuration ------------------------*/
  if(((RCC_OscInitStruct->OscillatorType) & RCC_OSCILLATORTYPE_HSE) == RCC_OSCILLATORTYPE_HSE)
 80013fe:	687b      	ldr	r3, [r7, #4]
 8001400:	681b      	ldr	r3, [r3, #0]
 8001402:	f003 0301 	and.w	r3, r3, #1
 8001406:	2b00      	cmp	r3, #0
 8001408:	d075      	beq.n	80014f6 <HAL_RCC_OscConfig+0x10a>
  {
    /* Check the parameters */
    assert_param(IS_RCC_HSE(RCC_OscInitStruct->HSEState));
    /* When the HSE is used as system clock or clock source for PLL in these cases HSE will not disabled */
    if((__HAL_RCC_GET_SYSCLK_SOURCE() == RCC_CFGR_SWS_HSE) ||\
 800140a:	4b88      	ldr	r3, [pc, #544]	; (800162c <HAL_RCC_OscConfig+0x240>)
 800140c:	689b      	ldr	r3, [r3, #8]
 800140e:	f003 030c 	and.w	r3, r3, #12
 8001412:	2b04      	cmp	r3, #4
 8001414:	d00c      	beq.n	8001430 <HAL_RCC_OscConfig+0x44>
      ((__HAL_RCC_GET_SYSCLK_SOURCE() == RCC_CFGR_SWS_PLL) && ((RCC->PLLCFGR & RCC_PLLCFGR_PLLSRC) == RCC_PLLCFGR_PLLSRC_HSE)))
 8001416:	4b85      	ldr	r3, [pc, #532]	; (800162c <HAL_RCC_OscConfig+0x240>)
 8001418:	689b      	ldr	r3, [r3, #8]
 800141a:	f003 030c 	and.w	r3, r3, #12
    if((__HAL_RCC_GET_SYSCLK_SOURCE() == RCC_CFGR_SWS_HSE) ||\
 800141e:	2b08      	cmp	r3, #8
 8001420:	d112      	bne.n	8001448 <HAL_RCC_OscConfig+0x5c>
      ((__HAL_RCC_GET_SYSCLK_SOURCE() == RCC_CFGR_SWS_PLL) && ((RCC->PLLCFGR & RCC_PLLCFGR_PLLSRC) == RCC_PLLCFGR_PLLSRC_HSE)))
 8001422:	4b82      	ldr	r3, [pc, #520]	; (800162c <HAL_RCC_OscConfig+0x240>)
 8001424:	685b      	ldr	r3, [r3, #4]
 8001426:	f403 0380 	and.w	r3, r3, #4194304	; 0x400000
 800142a:	f5b3 0f80 	cmp.w	r3, #4194304	; 0x400000
 800142e:	d10b      	bne.n	8001448 <HAL_RCC_OscConfig+0x5c>
    {
      if((__HAL_RCC_GET_FLAG(RCC_FLAG_HSERDY) != RESET) && (RCC_OscInitStruct->HSEState == RCC_HSE_OFF))
 8001430:	4b7e      	ldr	r3, [pc, #504]	; (800162c <HAL_RCC_OscConfig+0x240>)
 8001432:	681b      	ldr	r3, [r3, #0]
 8001434:	f403 3300 	and.w	r3, r3, #131072	; 0x20000
 8001438:	2b00      	cmp	r3, #0
 800143a:	d05b      	beq.n	80014f4 <HAL_RCC_OscConfig+0x108>
 800143c:	687b      	ldr	r3, [r7, #4]
 800143e:	685b      	ldr	r3, [r3, #4]
 8001440:	2b00      	cmp	r3, #0
 8001442:	d157      	bne.n	80014f4 <HAL_RCC_OscConfig+0x108>
      {
        return HAL_ERROR;
 8001444:	2301      	movs	r3, #1
 8001446:	e242      	b.n	80018ce <HAL_RCC_OscConfig+0x4e2>
      }
    }
    else
    {
      /* Set the new HSE configuration ---------------------------------------*/
      __HAL_RCC_HSE_CONFIG(RCC_OscInitStruct->HSEState);
 8001448:	687b      	ldr	r3, [r7, #4]
 800144a:	685b      	ldr	r3, [r3, #4]
 800144c:	f5b3 3f80 	cmp.w	r3, #65536	; 0x10000
 8001450:	d106      	bne.n	8001460 <HAL_RCC_OscConfig+0x74>
 8001452:	4b76      	ldr	r3, [pc, #472]	; (800162c <HAL_RCC_OscConfig+0x240>)
 8001454:	681b      	ldr	r3, [r3, #0]
 8001456:	4a75      	ldr	r2, [pc, #468]	; (800162c <HAL_RCC_OscConfig+0x240>)
 8001458:	f443 3380 	orr.w	r3, r3, #65536	; 0x10000
 800145c:	6013      	str	r3, [r2, #0]
 800145e:	e01d      	b.n	800149c <HAL_RCC_OscConfig+0xb0>
 8001460:	687b      	ldr	r3, [r7, #4]
 8001462:	685b      	ldr	r3, [r3, #4]
 8001464:	f5b3 2fa0 	cmp.w	r3, #327680	; 0x50000
 8001468:	d10c      	bne.n	8001484 <HAL_RCC_OscConfig+0x98>
 800146a:	4b70      	ldr	r3, [pc, #448]	; (800162c <HAL_RCC_OscConfig+0x240>)
 800146c:	681b      	ldr	r3, [r3, #0]
 800146e:	4a6f      	ldr	r2, [pc, #444]	; (800162c <HAL_RCC_OscConfig+0x240>)
 8001470:	f443 2380 	orr.w	r3, r3, #262144	; 0x40000
 8001474:	6013      	str	r3, [r2, #0]
 8001476:	4b6d      	ldr	r3, [pc, #436]	; (800162c <HAL_RCC_OscConfig+0x240>)
 8001478:	681b      	ldr	r3, [r3, #0]
 800147a:	4a6c      	ldr	r2, [pc, #432]	; (800162c <HAL_RCC_OscConfig+0x240>)
 800147c:	f443 3380 	orr.w	r3, r3, #65536	; 0x10000
 8001480:	6013      	str	r3, [r2, #0]
 8001482:	e00b      	b.n	800149c <HAL_RCC_OscConfig+0xb0>
 8001484:	4b69      	ldr	r3, [pc, #420]	; (800162c <HAL_RCC_OscConfig+0x240>)
 8001486:	681b      	ldr	r3, [r3, #0]
 8001488:	4a68      	ldr	r2, [pc, #416]	; (800162c <HAL_RCC_OscConfig+0x240>)
 800148a:	f423 3380 	bic.w	r3, r3, #65536	; 0x10000
 800148e:	6013      	str	r3, [r2, #0]
 8001490:	4b66      	ldr	r3, [pc, #408]	; (800162c <HAL_RCC_OscConfig+0x240>)
 8001492:	681b      	ldr	r3, [r3, #0]
 8001494:	4a65      	ldr	r2, [pc, #404]	; (800162c <HAL_RCC_OscConfig+0x240>)
 8001496:	f423 2380 	bic.w	r3, r3, #262144	; 0x40000
 800149a:	6013      	str	r3, [r2, #0]

      /* Check the HSE State */
      if((RCC_OscInitStruct->HSEState) != RCC_HSE_OFF)
 800149c:	687b      	ldr	r3, [r7, #4]
 800149e:	685b      	ldr	r3, [r3, #4]
 80014a0:	2b00      	cmp	r3, #0
 80014a2:	d013      	beq.n	80014cc <HAL_RCC_OscConfig+0xe0>
      {
        /* Get Start Tick */
        tickstart = HAL_GetTick();
 80014a4:	f7ff fc92 	bl	8000dcc <HAL_GetTick>
 80014a8:	6138      	str	r0, [r7, #16]

        /* Wait till HSE is ready */
        while(__HAL_RCC_GET_FLAG(RCC_FLAG_HSERDY) == RESET)
 80014aa:	e008      	b.n	80014be <HAL_RCC_OscConfig+0xd2>
        {
          if((HAL_GetTick() - tickstart ) > HSE_TIMEOUT_VALUE)
 80014ac:	f7ff fc8e 	bl	8000dcc <HAL_GetTick>
 80014b0:	4602      	mov	r2, r0
 80014b2:	693b      	ldr	r3, [r7, #16]
 80014b4:	1ad3      	subs	r3, r2, r3
 80014b6:	2b64      	cmp	r3, #100	; 0x64
 80014b8:	d901      	bls.n	80014be <HAL_RCC_OscConfig+0xd2>
          {
            return HAL_TIMEOUT;
 80014ba:	2303      	movs	r3, #3
 80014bc:	e207      	b.n	80018ce <HAL_RCC_OscConfig+0x4e2>
        while(__HAL_RCC_GET_FLAG(RCC_FLAG_HSERDY) == RESET)
 80014be:	4b5b      	ldr	r3, [pc, #364]	; (800162c <HAL_RCC_OscConfig+0x240>)
 80014c0:	681b      	ldr	r3, [r3, #0]
 80014c2:	f403 3300 	and.w	r3, r3, #131072	; 0x20000
 80014c6:	2b00      	cmp	r3, #0
 80014c8:	d0f0      	beq.n	80014ac <HAL_RCC_OscConfig+0xc0>
 80014ca:	e014      	b.n	80014f6 <HAL_RCC_OscConfig+0x10a>
        }
      }
      else
      {
        /* Get Start Tick */
        tickstart = HAL_GetTick();
 80014cc:	f7ff fc7e 	bl	8000dcc <HAL_GetTick>
 80014d0:	6138      	str	r0, [r7, #16]

        /* Wait till HSE is bypassed or disabled */
        while(__HAL_RCC_GET_FLAG(RCC_FLAG_HSERDY) != RESET)
 80014d2:	e008      	b.n	80014e6 <HAL_RCC_OscConfig+0xfa>
        {
          if((HAL_GetTick() - tickstart ) > HSE_TIMEOUT_VALUE)
 80014d4:	f7ff fc7a 	bl	8000dcc <HAL_GetTick>
 80014d8:	4602      	mov	r2, r0
 80014da:	693b      	ldr	r3, [r7, #16]
 80014dc:	1ad3      	subs	r3, r2, r3
 80014de:	2b64      	cmp	r3, #100	; 0x64
 80014e0:	d901      	bls.n	80014e6 <HAL_RCC_OscConfig+0xfa>
          {
            return HAL_TIMEOUT;
 80014e2:	2303      	movs	r3, #3
 80014e4:	e1f3      	b.n	80018ce <HAL_RCC_OscConfig+0x4e2>
        while(__HAL_RCC_GET_FLAG(RCC_FLAG_HSERDY) != RESET)
 80014e6:	4b51      	ldr	r3, [pc, #324]	; (800162c <HAL_RCC_OscConfig+0x240>)
 80014e8:	681b      	ldr	r3, [r3, #0]
 80014ea:	f403 3300 	and.w	r3, r3, #131072	; 0x20000
 80014ee:	2b00      	cmp	r3, #0
 80014f0:	d1f0      	bne.n	80014d4 <HAL_RCC_OscConfig+0xe8>
 80014f2:	e000      	b.n	80014f6 <HAL_RCC_OscConfig+0x10a>
      if((__HAL_RCC_GET_FLAG(RCC_FLAG_HSERDY) != RESET) && (RCC_OscInitStruct->HSEState == RCC_HSE_OFF))
 80014f4:	bf00      	nop
        }
      }
    }
  }
  /*----------------------------- HSI Configuration --------------------------*/
  if(((RCC_OscInitStruct->OscillatorType) & RCC_OSCILLATORTYPE_HSI) == RCC_OSCILLATORTYPE_HSI)
 80014f6:	687b      	ldr	r3, [r7, #4]
 80014f8:	681b      	ldr	r3, [r3, #0]
 80014fa:	f003 0302 	and.w	r3, r3, #2
 80014fe:	2b00      	cmp	r3, #0
 8001500:	d063      	beq.n	80015ca <HAL_RCC_OscConfig+0x1de>
    /* Check the parameters */
    assert_param(IS_RCC_HSI(RCC_OscInitStruct->HSIState));
    assert_param(IS_RCC_CALIBRATION_VALUE(RCC_OscInitStruct->HSICalibrationValue));

    /* Check if HSI is used as system clock or as PLL source when PLL is selected as system clock */
    if((__HAL_RCC_GET_SYSCLK_SOURCE() == RCC_CFGR_SWS_HSI) ||\
 8001502:	4b4a      	ldr	r3, [pc, #296]	; (800162c <HAL_RCC_OscConfig+0x240>)
 8001504:	689b      	ldr	r3, [r3, #8]
 8001506:	f003 030c 	and.w	r3, r3, #12
 800150a:	2b00      	cmp	r3, #0
 800150c:	d00b      	beq.n	8001526 <HAL_RCC_OscConfig+0x13a>
      ((__HAL_RCC_GET_SYSCLK_SOURCE() == RCC_CFGR_SWS_PLL) && ((RCC->PLLCFGR & RCC_PLLCFGR_PLLSRC) == RCC_PLLCFGR_PLLSRC_HSI)))
 800150e:	4b47      	ldr	r3, [pc, #284]	; (800162c <HAL_RCC_OscConfig+0x240>)
 8001510:	689b      	ldr	r3, [r3, #8]
 8001512:	f003 030c 	and.w	r3, r3, #12
    if((__HAL_RCC_GET_SYSCLK_SOURCE() == RCC_CFGR_SWS_HSI) ||\
 8001516:	2b08      	cmp	r3, #8
 8001518:	d11c      	bne.n	8001554 <HAL_RCC_OscConfig+0x168>
      ((__HAL_RCC_GET_SYSCLK_SOURCE() == RCC_CFGR_SWS_PLL) && ((RCC->PLLCFGR & RCC_PLLCFGR_PLLSRC) == RCC_PLLCFGR_PLLSRC_HSI)))
 800151a:	4b44      	ldr	r3, [pc, #272]	; (800162c <HAL_RCC_OscConfig+0x240>)
 800151c:	685b      	ldr	r3, [r3, #4]
 800151e:	f403 0380 	and.w	r3, r3, #4194304	; 0x400000
 8001522:	2b00      	cmp	r3, #0
 8001524:	d116      	bne.n	8001554 <HAL_RCC_OscConfig+0x168>
    {
      /* When HSI is used as system clock it will not disabled */
      if((__HAL_RCC_GET_FLAG(RCC_FLAG_HSIRDY) != RESET) && (RCC_OscInitStruct->HSIState != RCC_HSI_ON))
 8001526:	4b41      	ldr	r3, [pc, #260]	; (800162c <HAL_RCC_OscConfig+0x240>)
 8001528:	681b      	ldr	r3, [r3, #0]
 800152a:	f003 0302 	and.w	r3, r3, #2
 800152e:	2b00      	cmp	r3, #0
 8001530:	d005      	beq.n	800153e <HAL_RCC_OscConfig+0x152>
 8001532:	687b      	ldr	r3, [r7, #4]
 8001534:	68db      	ldr	r3, [r3, #12]
 8001536:	2b01      	cmp	r3, #1
 8001538:	d001      	beq.n	800153e <HAL_RCC_OscConfig+0x152>
      {
        return HAL_ERROR;
 800153a:	2301      	movs	r3, #1
 800153c:	e1c7      	b.n	80018ce <HAL_RCC_OscConfig+0x4e2>
      }
      /* Otherwise, just the calibration is allowed */
      else
      {
        /* Adjusts the Internal High Speed oscillator (HSI) calibration value.*/
        __HAL_RCC_HSI_CALIBRATIONVALUE_ADJUST(RCC_OscInitStruct->HSICalibrationValue);
 800153e:	4b3b      	ldr	r3, [pc, #236]	; (800162c <HAL_RCC_OscConfig+0x240>)
 8001540:	681b      	ldr	r3, [r3, #0]
 8001542:	f023 02f8 	bic.w	r2, r3, #248	; 0xf8
 8001546:	687b      	ldr	r3, [r7, #4]
 8001548:	691b      	ldr	r3, [r3, #16]
 800154a:	00db      	lsls	r3, r3, #3
 800154c:	4937      	ldr	r1, [pc, #220]	; (800162c <HAL_RCC_OscConfig+0x240>)
 800154e:	4313      	orrs	r3, r2
 8001550:	600b      	str	r3, [r1, #0]
      if((__HAL_RCC_GET_FLAG(RCC_FLAG_HSIRDY) != RESET) && (RCC_OscInitStruct->HSIState != RCC_HSI_ON))
 8001552:	e03a      	b.n	80015ca <HAL_RCC_OscConfig+0x1de>
      }
    }
    else
    {
      /* Check the HSI State */
      if((RCC_OscInitStruct->HSIState)!= RCC_HSI_OFF)
 8001554:	687b      	ldr	r3, [r7, #4]
 8001556:	68db      	ldr	r3, [r3, #12]
 8001558:	2b00      	cmp	r3, #0
 800155a:	d020      	beq.n	800159e <HAL_RCC_OscConfig+0x1b2>
      {
        /* Enable the Internal High Speed oscillator (HSI). */
        __HAL_RCC_HSI_ENABLE();
 800155c:	4b34      	ldr	r3, [pc, #208]	; (8001630 <HAL_RCC_OscConfig+0x244>)
 800155e:	2201      	movs	r2, #1
 8001560:	601a      	str	r2, [r3, #0]

        /* Get Start Tick*/
        tickstart = HAL_GetTick();
 8001562:	f7ff fc33 	bl	8000dcc <HAL_GetTick>
 8001566:	6138      	str	r0, [r7, #16]

        /* Wait till HSI is ready */
        while(__HAL_RCC_GET_FLAG(RCC_FLAG_HSIRDY) == RESET)
 8001568:	e008      	b.n	800157c <HAL_RCC_OscConfig+0x190>
        {
          if((HAL_GetTick() - tickstart ) > HSI_TIMEOUT_VALUE)
 800156a:	f7ff fc2f 	bl	8000dcc <HAL_GetTick>
 800156e:	4602      	mov	r2, r0
 8001570:	693b      	ldr	r3, [r7, #16]
 8001572:	1ad3      	subs	r3, r2, r3
 8001574:	2b02      	cmp	r3, #2
 8001576:	d901      	bls.n	800157c <HAL_RCC_OscConfig+0x190>
          {
            return HAL_TIMEOUT;
 8001578:	2303      	movs	r3, #3
 800157a:	e1a8      	b.n	80018ce <HAL_RCC_OscConfig+0x4e2>
        while(__HAL_RCC_GET_FLAG(RCC_FLAG_HSIRDY) == RESET)
 800157c:	4b2b      	ldr	r3, [pc, #172]	; (800162c <HAL_RCC_OscConfig+0x240>)
 800157e:	681b      	ldr	r3, [r3, #0]
 8001580:	f003 0302 	and.w	r3, r3, #2
 8001584:	2b00      	cmp	r3, #0
 8001586:	d0f0      	beq.n	800156a <HAL_RCC_OscConfig+0x17e>
          }
        }

        /* Adjusts the Internal High Speed oscillator (HSI) calibration value. */
        __HAL_RCC_HSI_CALIBRATIONVALUE_ADJUST(RCC_OscInitStruct->HSICalibrationValue);
 8001588:	4b28      	ldr	r3, [pc, #160]	; (800162c <HAL_RCC_OscConfig+0x240>)
 800158a:	681b      	ldr	r3, [r3, #0]
 800158c:	f023 02f8 	bic.w	r2, r3, #248	; 0xf8
 8001590:	687b      	ldr	r3, [r7, #4]
 8001592:	691b      	ldr	r3, [r3, #16]
 8001594:	00db      	lsls	r3, r3, #3
 8001596:	4925      	ldr	r1, [pc, #148]	; (800162c <HAL_RCC_OscConfig+0x240>)
 8001598:	4313      	orrs	r3, r2
 800159a:	600b      	str	r3, [r1, #0]
 800159c:	e015      	b.n	80015ca <HAL_RCC_OscConfig+0x1de>
      }
      else
      {
        /* Disable the Internal High Speed oscillator (HSI). */
        __HAL_RCC_HSI_DISABLE();
 800159e:	4b24      	ldr	r3, [pc, #144]	; (8001630 <HAL_RCC_OscConfig+0x244>)
 80015a0:	2200      	movs	r2, #0
 80015a2:	601a      	str	r2, [r3, #0]

        /* Get Start Tick*/
        tickstart = HAL_GetTick();
 80015a4:	f7ff fc12 	bl	8000dcc <HAL_GetTick>
 80015a8:	6138      	str	r0, [r7, #16]

        /* Wait till HSI is ready */
        while(__HAL_RCC_GET_FLAG(RCC_FLAG_HSIRDY) != RESET)
 80015aa:	e008      	b.n	80015be <HAL_RCC_OscConfig+0x1d2>
        {
          if((HAL_GetTick() - tickstart ) > HSI_TIMEOUT_VALUE)
 80015ac:	f7ff fc0e 	bl	8000dcc <HAL_GetTick>
 80015b0:	4602      	mov	r2, r0
 80015b2:	693b      	ldr	r3, [r7, #16]
 80015b4:	1ad3      	subs	r3, r2, r3
 80015b6:	2b02      	cmp	r3, #2
 80015b8:	d901      	bls.n	80015be <HAL_RCC_OscConfig+0x1d2>
          {
            return HAL_TIMEOUT;
 80015ba:	2303      	movs	r3, #3
 80015bc:	e187      	b.n	80018ce <HAL_RCC_OscConfig+0x4e2>
        while(__HAL_RCC_GET_FLAG(RCC_FLAG_HSIRDY) != RESET)
 80015be:	4b1b      	ldr	r3, [pc, #108]	; (800162c <HAL_RCC_OscConfig+0x240>)
 80015c0:	681b      	ldr	r3, [r3, #0]
 80015c2:	f003 0302 	and.w	r3, r3, #2
 80015c6:	2b00      	cmp	r3, #0
 80015c8:	d1f0      	bne.n	80015ac <HAL_RCC_OscConfig+0x1c0>
        }
      }
    }
  }
  /*------------------------------ LSI Configuration -------------------------*/
  if(((RCC_OscInitStruct->OscillatorType) & RCC_OSCILLATORTYPE_LSI) == RCC_OSCILLATORTYPE_LSI)
 80015ca:	687b      	ldr	r3, [r7, #4]
 80015cc:	681b      	ldr	r3, [r3, #0]
 80015ce:	f003 0308 	and.w	r3, r3, #8
 80015d2:	2b00      	cmp	r3, #0
 80015d4:	d036      	beq.n	8001644 <HAL_RCC_OscConfig+0x258>
  {
    /* Check the parameters */
    assert_param(IS_RCC_LSI(RCC_OscInitStruct->LSIState));

    /* Check the LSI State */
    if((RCC_OscInitStruct->LSIState)!= RCC_LSI_OFF)
 80015d6:	687b      	ldr	r3, [r7, #4]
 80015d8:	695b      	ldr	r3, [r3, #20]
 80015da:	2b00      	cmp	r3, #0
 80015dc:	d016      	beq.n	800160c <HAL_RCC_OscConfig+0x220>
    {
      /* Enable the Internal Low Speed oscillator (LSI). */
      __HAL_RCC_LSI_ENABLE();
 80015de:	4b15      	ldr	r3, [pc, #84]	; (8001634 <HAL_RCC_OscConfig+0x248>)
 80015e0:	2201      	movs	r2, #1
 80015e2:	601a      	str	r2, [r3, #0]

      /* Get Start Tick*/
      tickstart = HAL_GetTick();
 80015e4:	f7ff fbf2 	bl	8000dcc <HAL_GetTick>
 80015e8:	6138      	str	r0, [r7, #16]

      /* Wait till LSI is ready */
      while(__HAL_RCC_GET_FLAG(RCC_FLAG_LSIRDY) == RESET)
 80015ea:	e008      	b.n	80015fe <HAL_RCC_OscConfig+0x212>
      {
        if((HAL_GetTick() - tickstart ) > LSI_TIMEOUT_VALUE)
 80015ec:	f7ff fbee 	bl	8000dcc <HAL_GetTick>
 80015f0:	4602      	mov	r2, r0
 80015f2:	693b      	ldr	r3, [r7, #16]
 80015f4:	1ad3      	subs	r3, r2, r3
 80015f6:	2b02      	cmp	r3, #2
 80015f8:	d901      	bls.n	80015fe <HAL_RCC_OscConfig+0x212>
        {
          return HAL_TIMEOUT;
 80015fa:	2303      	movs	r3, #3
 80015fc:	e167      	b.n	80018ce <HAL_RCC_OscConfig+0x4e2>
      while(__HAL_RCC_GET_FLAG(RCC_FLAG_LSIRDY) == RESET)
 80015fe:	4b0b      	ldr	r3, [pc, #44]	; (800162c <HAL_RCC_OscConfig+0x240>)
 8001600:	6f5b      	ldr	r3, [r3, #116]	; 0x74
 8001602:	f003 0302 	and.w	r3, r3, #2
 8001606:	2b00      	cmp	r3, #0
 8001608:	d0f0      	beq.n	80015ec <HAL_RCC_OscConfig+0x200>
 800160a:	e01b      	b.n	8001644 <HAL_RCC_OscConfig+0x258>
      }
    }
    else
    {
      /* Disable the Internal Low Speed oscillator (LSI). */
      __HAL_RCC_LSI_DISABLE();
 800160c:	4b09      	ldr	r3, [pc, #36]	; (8001634 <HAL_RCC_OscConfig+0x248>)
 800160e:	2200      	movs	r2, #0
 8001610:	601a      	str	r2, [r3, #0]

      /* Get Start Tick */
      tickstart = HAL_GetTick();
 8001612:	f7ff fbdb 	bl	8000dcc <HAL_GetTick>
 8001616:	6138      	str	r0, [r7, #16]

      /* Wait till LSI is ready */
      while(__HAL_RCC_GET_FLAG(RCC_FLAG_LSIRDY) != RESET)
 8001618:	e00e      	b.n	8001638 <HAL_RCC_OscConfig+0x24c>
      {
        if((HAL_GetTick() - tickstart ) > LSI_TIMEOUT_VALUE)
 800161a:	f7ff fbd7 	bl	8000dcc <HAL_GetTick>
 800161e:	4602      	mov	r2, r0
 8001620:	693b      	ldr	r3, [r7, #16]
 8001622:	1ad3      	subs	r3, r2, r3
 8001624:	2b02      	cmp	r3, #2
 8001626:	d907      	bls.n	8001638 <HAL_RCC_OscConfig+0x24c>
        {
          return HAL_TIMEOUT;
 8001628:	2303      	movs	r3, #3
 800162a:	e150      	b.n	80018ce <HAL_RCC_OscConfig+0x4e2>
 800162c:	40023800 	.word	0x40023800
 8001630:	42470000 	.word	0x42470000
 8001634:	42470e80 	.word	0x42470e80
      while(__HAL_RCC_GET_FLAG(RCC_FLAG_LSIRDY) != RESET)
 8001638:	4b88      	ldr	r3, [pc, #544]	; (800185c <HAL_RCC_OscConfig+0x470>)
 800163a:	6f5b      	ldr	r3, [r3, #116]	; 0x74
 800163c:	f003 0302 	and.w	r3, r3, #2
 8001640:	2b00      	cmp	r3, #0
 8001642:	d1ea      	bne.n	800161a <HAL_RCC_OscConfig+0x22e>
        }
      }
    }
  }
  /*------------------------------ LSE Configuration -------------------------*/
  if(((RCC_OscInitStruct->OscillatorType) & RCC_OSCILLATORTYPE_LSE) == RCC_OSCILLATORTYPE_LSE)
 8001644:	687b      	ldr	r3, [r7, #4]
 8001646:	681b      	ldr	r3, [r3, #0]
 8001648:	f003 0304 	and.w	r3, r3, #4
 800164c:	2b00      	cmp	r3, #0
 800164e:	f000 8097 	beq.w	8001780 <HAL_RCC_OscConfig+0x394>
  {
    FlagStatus       pwrclkchanged = RESET;
 8001652:	2300      	movs	r3, #0
 8001654:	75fb      	strb	r3, [r7, #23]
    /* Check the parameters */
    assert_param(IS_RCC_LSE(RCC_OscInitStruct->LSEState));

    /* Update LSE configuration in Backup Domain control register    */
    /* Requires to enable write access to Backup Domain of necessary */
    if(__HAL_RCC_PWR_IS_CLK_DISABLED())
 8001656:	4b81      	ldr	r3, [pc, #516]	; (800185c <HAL_RCC_OscConfig+0x470>)
 8001658:	6c1b      	ldr	r3, [r3, #64]	; 0x40
 800165a:	f003 5380 	and.w	r3, r3, #268435456	; 0x10000000
 800165e:	2b00      	cmp	r3, #0
 8001660:	d10f      	bne.n	8001682 <HAL_RCC_OscConfig+0x296>
    {
      __HAL_RCC_PWR_CLK_ENABLE();
 8001662:	2300      	movs	r3, #0
 8001664:	60bb      	str	r3, [r7, #8]
 8001666:	4b7d      	ldr	r3, [pc, #500]	; (800185c <HAL_RCC_OscConfig+0x470>)
 8001668:	6c1b      	ldr	r3, [r3, #64]	; 0x40
 800166a:	4a7c      	ldr	r2, [pc, #496]	; (800185c <HAL_RCC_OscConfig+0x470>)
 800166c:	f043 5380 	orr.w	r3, r3, #268435456	; 0x10000000
 8001670:	6413      	str	r3, [r2, #64]	; 0x40
 8001672:	4b7a      	ldr	r3, [pc, #488]	; (800185c <HAL_RCC_OscConfig+0x470>)
 8001674:	6c1b      	ldr	r3, [r3, #64]	; 0x40
 8001676:	f003 5380 	and.w	r3, r3, #268435456	; 0x10000000
 800167a:	60bb      	str	r3, [r7, #8]
 800167c:	68bb      	ldr	r3, [r7, #8]
      pwrclkchanged = SET;
 800167e:	2301      	movs	r3, #1
 8001680:	75fb      	strb	r3, [r7, #23]
    }

    if(HAL_IS_BIT_CLR(PWR->CR, PWR_CR_DBP))
 8001682:	4b77      	ldr	r3, [pc, #476]	; (8001860 <HAL_RCC_OscConfig+0x474>)
 8001684:	681b      	ldr	r3, [r3, #0]
 8001686:	f403 7380 	and.w	r3, r3, #256	; 0x100
 800168a:	2b00      	cmp	r3, #0
 800168c:	d118      	bne.n	80016c0 <HAL_RCC_OscConfig+0x2d4>
    {
      /* Enable write access to Backup domain */
      SET_BIT(PWR->CR, PWR_CR_DBP);
 800168e:	4b74      	ldr	r3, [pc, #464]	; (8001860 <HAL_RCC_OscConfig+0x474>)
 8001690:	681b      	ldr	r3, [r3, #0]
 8001692:	4a73      	ldr	r2, [pc, #460]	; (8001860 <HAL_RCC_OscConfig+0x474>)
 8001694:	f443 7380 	orr.w	r3, r3, #256	; 0x100
 8001698:	6013      	str	r3, [r2, #0]

      /* Wait for Backup domain Write protection disable */
      tickstart = HAL_GetTick();
 800169a:	f7ff fb97 	bl	8000dcc <HAL_GetTick>
 800169e:	6138      	str	r0, [r7, #16]

      while(HAL_IS_BIT_CLR(PWR->CR, PWR_CR_DBP))
 80016a0:	e008      	b.n	80016b4 <HAL_RCC_OscConfig+0x2c8>
      {
        if((HAL_GetTick() - tickstart) > RCC_DBP_TIMEOUT_VALUE)
 80016a2:	f7ff fb93 	bl	8000dcc <HAL_GetTick>
 80016a6:	4602      	mov	r2, r0
 80016a8:	693b      	ldr	r3, [r7, #16]
 80016aa:	1ad3      	subs	r3, r2, r3
 80016ac:	2b02      	cmp	r3, #2
 80016ae:	d901      	bls.n	80016b4 <HAL_RCC_OscConfig+0x2c8>
        {
          return HAL_TIMEOUT;
 80016b0:	2303      	movs	r3, #3
 80016b2:	e10c      	b.n	80018ce <HAL_RCC_OscConfig+0x4e2>
      while(HAL_IS_BIT_CLR(PWR->CR, PWR_CR_DBP))
 80016b4:	4b6a      	ldr	r3, [pc, #424]	; (8001860 <HAL_RCC_OscConfig+0x474>)
 80016b6:	681b      	ldr	r3, [r3, #0]
 80016b8:	f403 7380 	and.w	r3, r3, #256	; 0x100
 80016bc:	2b00      	cmp	r3, #0
 80016be:	d0f0      	beq.n	80016a2 <HAL_RCC_OscConfig+0x2b6>
        }
      }
    }

    /* Set the new LSE configuration -----------------------------------------*/
    __HAL_RCC_LSE_CONFIG(RCC_OscInitStruct->LSEState);
 80016c0:	687b      	ldr	r3, [r7, #4]
 80016c2:	689b      	ldr	r3, [r3, #8]
 80016c4:	2b01      	cmp	r3, #1
 80016c6:	d106      	bne.n	80016d6 <HAL_RCC_OscConfig+0x2ea>
 80016c8:	4b64      	ldr	r3, [pc, #400]	; (800185c <HAL_RCC_OscConfig+0x470>)
 80016ca:	6f1b      	ldr	r3, [r3, #112]	; 0x70
 80016cc:	4a63      	ldr	r2, [pc, #396]	; (800185c <HAL_RCC_OscConfig+0x470>)
 80016ce:	f043 0301 	orr.w	r3, r3, #1
 80016d2:	6713      	str	r3, [r2, #112]	; 0x70
 80016d4:	e01c      	b.n	8001710 <HAL_RCC_OscConfig+0x324>
 80016d6:	687b      	ldr	r3, [r7, #4]
 80016d8:	689b      	ldr	r3, [r3, #8]
 80016da:	2b05      	cmp	r3, #5
 80016dc:	d10c      	bne.n	80016f8 <HAL_RCC_OscConfig+0x30c>
 80016de:	4b5f      	ldr	r3, [pc, #380]	; (800185c <HAL_RCC_OscConfig+0x470>)
 80016e0:	6f1b      	ldr	r3, [r3, #112]	; 0x70
 80016e2:	4a5e      	ldr	r2, [pc, #376]	; (800185c <HAL_RCC_OscConfig+0x470>)
 80016e4:	f043 0304 	orr.w	r3, r3, #4
 80016e8:	6713      	str	r3, [r2, #112]	; 0x70
 80016ea:	4b5c      	ldr	r3, [pc, #368]	; (800185c <HAL_RCC_OscConfig+0x470>)
 80016ec:	6f1b      	ldr	r3, [r3, #112]	; 0x70
 80016ee:	4a5b      	ldr	r2, [pc, #364]	; (800185c <HAL_RCC_OscConfig+0x470>)
 80016f0:	f043 0301 	orr.w	r3, r3, #1
 80016f4:	6713      	str	r3, [r2, #112]	; 0x70
 80016f6:	e00b      	b.n	8001710 <HAL_RCC_OscConfig+0x324>
 80016f8:	4b58      	ldr	r3, [pc, #352]	; (800185c <HAL_RCC_OscConfig+0x470>)
 80016fa:	6f1b      	ldr	r3, [r3, #112]	; 0x70
 80016fc:	4a57      	ldr	r2, [pc, #348]	; (800185c <HAL_RCC_OscConfig+0x470>)
 80016fe:	f023 0301 	bic.w	r3, r3, #1
 8001702:	6713      	str	r3, [r2, #112]	; 0x70
 8001704:	4b55      	ldr	r3, [pc, #340]	; (800185c <HAL_RCC_OscConfig+0x470>)
 8001706:	6f1b      	ldr	r3, [r3, #112]	; 0x70
 8001708:	4a54      	ldr	r2, [pc, #336]	; (800185c <HAL_RCC_OscConfig+0x470>)
 800170a:	f023 0304 	bic.w	r3, r3, #4
 800170e:	6713      	str	r3, [r2, #112]	; 0x70
    /* Check the LSE State */
    if((RCC_OscInitStruct->LSEState) != RCC_LSE_OFF)
 8001710:	687b      	ldr	r3, [r7, #4]
 8001712:	689b      	ldr	r3, [r3, #8]
 8001714:	2b00      	cmp	r3, #0
 8001716:	d015      	beq.n	8001744 <HAL_RCC_OscConfig+0x358>
    {
      /* Get Start Tick*/
      tickstart = HAL_GetTick();
 8001718:	f7ff fb58 	bl	8000dcc <HAL_GetTick>
 800171c:	6138      	str	r0, [r7, #16]

      /* Wait till LSE is ready */
      while(__HAL_RCC_GET_FLAG(RCC_FLAG_LSERDY) == RESET)
 800171e:	e00a      	b.n	8001736 <HAL_RCC_OscConfig+0x34a>
      {
        if((HAL_GetTick() - tickstart ) > RCC_LSE_TIMEOUT_VALUE)
 8001720:	f7ff fb54 	bl	8000dcc <HAL_GetTick>
 8001724:	4602      	mov	r2, r0
 8001726:	693b      	ldr	r3, [r7, #16]
 8001728:	1ad3      	subs	r3, r2, r3
 800172a:	f241 3288 	movw	r2, #5000	; 0x1388
 800172e:	4293      	cmp	r3, r2
 8001730:	d901      	bls.n	8001736 <HAL_RCC_OscConfig+0x34a>
        {
          return HAL_TIMEOUT;
 8001732:	2303      	movs	r3, #3
 8001734:	e0cb      	b.n	80018ce <HAL_RCC_OscConfig+0x4e2>
      while(__HAL_RCC_GET_FLAG(RCC_FLAG_LSERDY) == RESET)
 8001736:	4b49      	ldr	r3, [pc, #292]	; (800185c <HAL_RCC_OscConfig+0x470>)
 8001738:	6f1b      	ldr	r3, [r3, #112]	; 0x70
 800173a:	f003 0302 	and.w	r3, r3, #2
 800173e:	2b00      	cmp	r3, #0
 8001740:	d0ee      	beq.n	8001720 <HAL_RCC_OscConfig+0x334>
 8001742:	e014      	b.n	800176e <HAL_RCC_OscConfig+0x382>
      }
    }
    else
    {
      /* Get Start Tick */
      tickstart = HAL_GetTick();
 8001744:	f7ff fb42 	bl	8000dcc <HAL_GetTick>
 8001748:	6138      	str	r0, [r7, #16]

      /* Wait till LSE is ready */
      while(__HAL_RCC_GET_FLAG(RCC_FLAG_LSERDY) != RESET)
 800174a:	e00a      	b.n	8001762 <HAL_RCC_OscConfig+0x376>
      {
        if((HAL_GetTick() - tickstart ) > RCC_LSE_TIMEOUT_VALUE)
 800174c:	f7ff fb3e 	bl	8000dcc <HAL_GetTick>
 8001750:	4602      	mov	r2, r0
 8001752:	693b      	ldr	r3, [r7, #16]
 8001754:	1ad3      	subs	r3, r2, r3
 8001756:	f241 3288 	movw	r2, #5000	; 0x1388
 800175a:	4293      	cmp	r3, r2
 800175c:	d901      	bls.n	8001762 <HAL_RCC_OscConfig+0x376>
        {
          return HAL_TIMEOUT;
 800175e:	2303      	movs	r3, #3
 8001760:	e0b5      	b.n	80018ce <HAL_RCC_OscConfig+0x4e2>
      while(__HAL_RCC_GET_FLAG(RCC_FLAG_LSERDY) != RESET)
 8001762:	4b3e      	ldr	r3, [pc, #248]	; (800185c <HAL_RCC_OscConfig+0x470>)
 8001764:	6f1b      	ldr	r3, [r3, #112]	; 0x70
 8001766:	f003 0302 	and.w	r3, r3, #2
 800176a:	2b00      	cmp	r3, #0
 800176c:	d1ee      	bne.n	800174c <HAL_RCC_OscConfig+0x360>
        }
      }
    }

    /* Restore clock configuration if changed */
    if(pwrclkchanged == SET)
 800176e:	7dfb      	ldrb	r3, [r7, #23]
 8001770:	2b01      	cmp	r3, #1
 8001772:	d105      	bne.n	8001780 <HAL_RCC_OscConfig+0x394>
    {
      __HAL_RCC_PWR_CLK_DISABLE();
 8001774:	4b39      	ldr	r3, [pc, #228]	; (800185c <HAL_RCC_OscConfig+0x470>)
 8001776:	6c1b      	ldr	r3, [r3, #64]	; 0x40
 8001778:	4a38      	ldr	r2, [pc, #224]	; (800185c <HAL_RCC_OscConfig+0x470>)
 800177a:	f023 5380 	bic.w	r3, r3, #268435456	; 0x10000000
 800177e:	6413      	str	r3, [r2, #64]	; 0x40
    }
  }
  /*-------------------------------- PLL Configuration -----------------------*/
  /* Check the parameters */
  assert_param(IS_RCC_PLL(RCC_OscInitStruct->PLL.PLLState));
  if ((RCC_OscInitStruct->PLL.PLLState) != RCC_PLL_NONE)
 8001780:	687b      	ldr	r3, [r7, #4]
 8001782:	699b      	ldr	r3, [r3, #24]
 8001784:	2b00      	cmp	r3, #0
 8001786:	f000 80a1 	beq.w	80018cc <HAL_RCC_OscConfig+0x4e0>
  {
    /* Check if the PLL is used as system clock or not */
    if(__HAL_RCC_GET_SYSCLK_SOURCE() != RCC_CFGR_SWS_PLL)
 800178a:	4b34      	ldr	r3, [pc, #208]	; (800185c <HAL_RCC_OscConfig+0x470>)
 800178c:	689b      	ldr	r3, [r3, #8]
 800178e:	f003 030c 	and.w	r3, r3, #12
 8001792:	2b08      	cmp	r3, #8
 8001794:	d05c      	beq.n	8001850 <HAL_RCC_OscConfig+0x464>
    {
      if((RCC_OscInitStruct->PLL.PLLState) == RCC_PLL_ON)
 8001796:	687b      	ldr	r3, [r7, #4]
 8001798:	699b      	ldr	r3, [r3, #24]
 800179a:	2b02      	cmp	r3, #2
 800179c:	d141      	bne.n	8001822 <HAL_RCC_OscConfig+0x436>
        assert_param(IS_RCC_PLLN_VALUE(RCC_OscInitStruct->PLL.PLLN));
        assert_param(IS_RCC_PLLP_VALUE(RCC_OscInitStruct->PLL.PLLP));
        assert_param(IS_RCC_PLLQ_VALUE(RCC_OscInitStruct->PLL.PLLQ));

        /* Disable the main PLL. */
        __HAL_RCC_PLL_DISABLE();
 800179e:	4b31      	ldr	r3, [pc, #196]	; (8001864 <HAL_RCC_OscConfig+0x478>)
 80017a0:	2200      	movs	r2, #0
 80017a2:	601a      	str	r2, [r3, #0]

        /* Get Start Tick */
        tickstart = HAL_GetTick();
 80017a4:	f7ff fb12 	bl	8000dcc <HAL_GetTick>
 80017a8:	6138      	str	r0, [r7, #16]

        /* Wait till PLL is ready */
        while(__HAL_RCC_GET_FLAG(RCC_FLAG_PLLRDY) != RESET)
 80017aa:	e008      	b.n	80017be <HAL_RCC_OscConfig+0x3d2>
        {
          if((HAL_GetTick() - tickstart ) > PLL_TIMEOUT_VALUE)
 80017ac:	f7ff fb0e 	bl	8000dcc <HAL_GetTick>
 80017b0:	4602      	mov	r2, r0
 80017b2:	693b      	ldr	r3, [r7, #16]
 80017b4:	1ad3      	subs	r3, r2, r3
 80017b6:	2b02      	cmp	r3, #2
 80017b8:	d901      	bls.n	80017be <HAL_RCC_OscConfig+0x3d2>
          {
            return HAL_TIMEOUT;
 80017ba:	2303      	movs	r3, #3
 80017bc:	e087      	b.n	80018ce <HAL_RCC_OscConfig+0x4e2>
        while(__HAL_RCC_GET_FLAG(RCC_FLAG_PLLRDY) != RESET)
 80017be:	4b27      	ldr	r3, [pc, #156]	; (800185c <HAL_RCC_OscConfig+0x470>)
 80017c0:	681b      	ldr	r3, [r3, #0]
 80017c2:	f003 7300 	and.w	r3, r3, #33554432	; 0x2000000
 80017c6:	2b00      	cmp	r3, #0
 80017c8:	d1f0      	bne.n	80017ac <HAL_RCC_OscConfig+0x3c0>
          }
        }

        /* Configure the main PLL clock source, multiplication and division factors. */
        WRITE_REG(RCC->PLLCFGR, (RCC_OscInitStruct->PLL.PLLSource                                            | \
 80017ca:	687b      	ldr	r3, [r7, #4]
 80017cc:	69da      	ldr	r2, [r3, #28]
 80017ce:	687b      	ldr	r3, [r7, #4]
 80017d0:	6a1b      	ldr	r3, [r3, #32]
 80017d2:	431a      	orrs	r2, r3
 80017d4:	687b      	ldr	r3, [r7, #4]
 80017d6:	6a5b      	ldr	r3, [r3, #36]	; 0x24
 80017d8:	019b      	lsls	r3, r3, #6
 80017da:	431a      	orrs	r2, r3
 80017dc:	687b      	ldr	r3, [r7, #4]
 80017de:	6a9b      	ldr	r3, [r3, #40]	; 0x28
 80017e0:	085b      	lsrs	r3, r3, #1
 80017e2:	3b01      	subs	r3, #1
 80017e4:	041b      	lsls	r3, r3, #16
 80017e6:	431a      	orrs	r2, r3
 80017e8:	687b      	ldr	r3, [r7, #4]
 80017ea:	6adb      	ldr	r3, [r3, #44]	; 0x2c
 80017ec:	061b      	lsls	r3, r3, #24
 80017ee:	491b      	ldr	r1, [pc, #108]	; (800185c <HAL_RCC_OscConfig+0x470>)
 80017f0:	4313      	orrs	r3, r2
 80017f2:	604b      	str	r3, [r1, #4]
                                 RCC_OscInitStruct->PLL.PLLM                                                 | \
                                 (RCC_OscInitStruct->PLL.PLLN << RCC_PLLCFGR_PLLN_Pos)             | \
                                 (((RCC_OscInitStruct->PLL.PLLP >> 1U) - 1U) << RCC_PLLCFGR_PLLP_Pos) | \
                                 (RCC_OscInitStruct->PLL.PLLQ << RCC_PLLCFGR_PLLQ_Pos)));
        /* Enable the main PLL. */
        __HAL_RCC_PLL_ENABLE();
 80017f4:	4b1b      	ldr	r3, [pc, #108]	; (8001864 <HAL_RCC_OscConfig+0x478>)
 80017f6:	2201      	movs	r2, #1
 80017f8:	601a      	str	r2, [r3, #0]

        /* Get Start Tick */
        tickstart = HAL_GetTick();
 80017fa:	f7ff fae7 	bl	8000dcc <HAL_GetTick>
 80017fe:	6138      	str	r0, [r7, #16]

        /* Wait till PLL is ready */
        while(__HAL_RCC_GET_FLAG(RCC_FLAG_PLLRDY) == RESET)
 8001800:	e008      	b.n	8001814 <HAL_RCC_OscConfig+0x428>
        {
          if((HAL_GetTick() - tickstart ) > PLL_TIMEOUT_VALUE)
 8001802:	f7ff fae3 	bl	8000dcc <HAL_GetTick>
 8001806:	4602      	mov	r2, r0
 8001808:	693b      	ldr	r3, [r7, #16]
 800180a:	1ad3      	subs	r3, r2, r3
 800180c:	2b02      	cmp	r3, #2
 800180e:	d901      	bls.n	8001814 <HAL_RCC_OscConfig+0x428>
          {
            return HAL_TIMEOUT;
 8001810:	2303      	movs	r3, #3
 8001812:	e05c      	b.n	80018ce <HAL_RCC_OscConfig+0x4e2>
        while(__HAL_RCC_GET_FLAG(RCC_FLAG_PLLRDY) == RESET)
 8001814:	4b11      	ldr	r3, [pc, #68]	; (800185c <HAL_RCC_OscConfig+0x470>)
 8001816:	681b      	ldr	r3, [r3, #0]
 8001818:	f003 7300 	and.w	r3, r3, #33554432	; 0x2000000
 800181c:	2b00      	cmp	r3, #0
 800181e:	d0f0      	beq.n	8001802 <HAL_RCC_OscConfig+0x416>
 8001820:	e054      	b.n	80018cc <HAL_RCC_OscConfig+0x4e0>
        }
      }
      else
      {
        /* Disable the main PLL. */
        __HAL_RCC_PLL_DISABLE();
 8001822:	4b10      	ldr	r3, [pc, #64]	; (8001864 <HAL_RCC_OscConfig+0x478>)
 8001824:	2200      	movs	r2, #0
 8001826:	601a      	str	r2, [r3, #0]

        /* Get Start Tick */
        tickstart = HAL_GetTick();
 8001828:	f7ff fad0 	bl	8000dcc <HAL_GetTick>
 800182c:	6138      	str	r0, [r7, #16]

        /* Wait till PLL is ready */
        while(__HAL_RCC_GET_FLAG(RCC_FLAG_PLLRDY) != RESET)
 800182e:	e008      	b.n	8001842 <HAL_RCC_OscConfig+0x456>
        {
          if((HAL_GetTick() - tickstart ) > PLL_TIMEOUT_VALUE)
 8001830:	f7ff facc 	bl	8000dcc <HAL_GetTick>
 8001834:	4602      	mov	r2, r0
 8001836:	693b      	ldr	r3, [r7, #16]
 8001838:	1ad3      	subs	r3, r2, r3
 800183a:	2b02      	cmp	r3, #2
 800183c:	d901      	bls.n	8001842 <HAL_RCC_OscConfig+0x456>
          {
            return HAL_TIMEOUT;
 800183e:	2303      	movs	r3, #3
 8001840:	e045      	b.n	80018ce <HAL_RCC_OscConfig+0x4e2>
        while(__HAL_RCC_GET_FLAG(RCC_FLAG_PLLRDY) != RESET)
 8001842:	4b06      	ldr	r3, [pc, #24]	; (800185c <HAL_RCC_OscConfig+0x470>)
 8001844:	681b      	ldr	r3, [r3, #0]
 8001846:	f003 7300 	and.w	r3, r3, #33554432	; 0x2000000
 800184a:	2b00      	cmp	r3, #0
 800184c:	d1f0      	bne.n	8001830 <HAL_RCC_OscConfig+0x444>
 800184e:	e03d      	b.n	80018cc <HAL_RCC_OscConfig+0x4e0>
      }
    }
    else
    {
      /* Check if there is a request to disable the PLL used as System clock source */
      if((RCC_OscInitStruct->PLL.PLLState) == RCC_PLL_OFF)
 8001850:	687b      	ldr	r3, [r7, #4]
 8001852:	699b      	ldr	r3, [r3, #24]
 8001854:	2b01      	cmp	r3, #1
 8001856:	d107      	bne.n	8001868 <HAL_RCC_OscConfig+0x47c>
      {
        return HAL_ERROR;
 8001858:	2301      	movs	r3, #1
 800185a:	e038      	b.n	80018ce <HAL_RCC_OscConfig+0x4e2>
 800185c:	40023800 	.word	0x40023800
 8001860:	40007000 	.word	0x40007000
 8001864:	42470060 	.word	0x42470060
      }
      else
      {
        /* Do not return HAL_ERROR if request repeats the current configuration */
        pll_config = RCC->PLLCFGR;
 8001868:	4b1b      	ldr	r3, [pc, #108]	; (80018d8 <HAL_RCC_OscConfig+0x4ec>)
 800186a:	685b      	ldr	r3, [r3, #4]
 800186c:	60fb      	str	r3, [r7, #12]
            (READ_BIT(pll_config, RCC_PLLCFGR_PLLN) != (RCC_OscInitStruct->PLL.PLLN) << RCC_PLLCFGR_PLLN_Pos) ||
            (READ_BIT(pll_config, RCC_PLLCFGR_PLLP) != (((RCC_OscInitStruct->PLL.PLLP >> 1U) - 1U)) << RCC_PLLCFGR_PLLP_Pos) ||
            (READ_BIT(pll_config, RCC_PLLCFGR_PLLQ) != (RCC_OscInitStruct->PLL.PLLQ << RCC_PLLCFGR_PLLQ_Pos)) ||
            (READ_BIT(pll_config, RCC_PLLCFGR_PLLR) != (RCC_OscInitStruct->PLL.PLLR << RCC_PLLCFGR_PLLR_Pos)))
#else
        if (((RCC_OscInitStruct->PLL.PLLState) == RCC_PLL_OFF) ||
 800186e:	687b      	ldr	r3, [r7, #4]
 8001870:	699b      	ldr	r3, [r3, #24]
 8001872:	2b01      	cmp	r3, #1
 8001874:	d028      	beq.n	80018c8 <HAL_RCC_OscConfig+0x4dc>
            (READ_BIT(pll_config, RCC_PLLCFGR_PLLSRC) != RCC_OscInitStruct->PLL.PLLSource) ||
 8001876:	68fb      	ldr	r3, [r7, #12]
 8001878:	f403 0280 	and.w	r2, r3, #4194304	; 0x400000
 800187c:	687b      	ldr	r3, [r7, #4]
 800187e:	69db      	ldr	r3, [r3, #28]
        if (((RCC_OscInitStruct->PLL.PLLState) == RCC_PLL_OFF) ||
 8001880:	429a      	cmp	r2, r3
 8001882:	d121      	bne.n	80018c8 <HAL_RCC_OscConfig+0x4dc>
            (READ_BIT(pll_config, RCC_PLLCFGR_PLLM) != (RCC_OscInitStruct->PLL.PLLM) << RCC_PLLCFGR_PLLM_Pos) ||
 8001884:	68fb      	ldr	r3, [r7, #12]
 8001886:	f003 023f 	and.w	r2, r3, #63	; 0x3f
 800188a:	687b      	ldr	r3, [r7, #4]
 800188c:	6a1b      	ldr	r3, [r3, #32]
            (READ_BIT(pll_config, RCC_PLLCFGR_PLLSRC) != RCC_OscInitStruct->PLL.PLLSource) ||
 800188e:	429a      	cmp	r2, r3
 8001890:	d11a      	bne.n	80018c8 <HAL_RCC_OscConfig+0x4dc>
            (READ_BIT(pll_config, RCC_PLLCFGR_PLLN) != (RCC_OscInitStruct->PLL.PLLN) << RCC_PLLCFGR_PLLN_Pos) ||
 8001892:	68fa      	ldr	r2, [r7, #12]
 8001894:	f647 73c0 	movw	r3, #32704	; 0x7fc0
 8001898:	4013      	ands	r3, r2
 800189a:	687a      	ldr	r2, [r7, #4]
 800189c:	6a52      	ldr	r2, [r2, #36]	; 0x24
 800189e:	0192      	lsls	r2, r2, #6
            (READ_BIT(pll_config, RCC_PLLCFGR_PLLM) != (RCC_OscInitStruct->PLL.PLLM) << RCC_PLLCFGR_PLLM_Pos) ||
 80018a0:	4293      	cmp	r3, r2
 80018a2:	d111      	bne.n	80018c8 <HAL_RCC_OscConfig+0x4dc>
            (READ_BIT(pll_config, RCC_PLLCFGR_PLLP) != (((RCC_OscInitStruct->PLL.PLLP >> 1U) - 1U)) << RCC_PLLCFGR_PLLP_Pos) ||
 80018a4:	68fb      	ldr	r3, [r7, #12]
 80018a6:	f403 3240 	and.w	r2, r3, #196608	; 0x30000
 80018aa:	687b      	ldr	r3, [r7, #4]
 80018ac:	6a9b      	ldr	r3, [r3, #40]	; 0x28
 80018ae:	085b      	lsrs	r3, r3, #1
 80018b0:	3b01      	subs	r3, #1
 80018b2:	041b      	lsls	r3, r3, #16
            (READ_BIT(pll_config, RCC_PLLCFGR_PLLN) != (RCC_OscInitStruct->PLL.PLLN) << RCC_PLLCFGR_PLLN_Pos) ||
 80018b4:	429a      	cmp	r2, r3
 80018b6:	d107      	bne.n	80018c8 <HAL_RCC_OscConfig+0x4dc>
            (READ_BIT(pll_config, RCC_PLLCFGR_PLLQ) != (RCC_OscInitStruct->PLL.PLLQ << RCC_PLLCFGR_PLLQ_Pos)))
 80018b8:	68fb      	ldr	r3, [r7, #12]
 80018ba:	f003 6270 	and.w	r2, r3, #251658240	; 0xf000000
 80018be:	687b      	ldr	r3, [r7, #4]
 80018c0:	6adb      	ldr	r3, [r3, #44]	; 0x2c
 80018c2:	061b      	lsls	r3, r3, #24
            (READ_BIT(pll_config, RCC_PLLCFGR_PLLP) != (((RCC_OscInitStruct->PLL.PLLP >> 1U) - 1U)) << RCC_PLLCFGR_PLLP_Pos) ||
 80018c4:	429a      	cmp	r2, r3
 80018c6:	d001      	beq.n	80018cc <HAL_RCC_OscConfig+0x4e0>
#endif
        {
          return HAL_ERROR;
 80018c8:	2301      	movs	r3, #1
 80018ca:	e000      	b.n	80018ce <HAL_RCC_OscConfig+0x4e2>
        }
      }
    }
  }
  return HAL_OK;
 80018cc:	2300      	movs	r3, #0
}
 80018ce:	4618      	mov	r0, r3
 80018d0:	3718      	adds	r7, #24
 80018d2:	46bd      	mov	sp, r7
 80018d4:	bd80      	pop	{r7, pc}
 80018d6:	bf00      	nop
 80018d8:	40023800 	.word	0x40023800

080018dc <HAL_RCC_ClockConfig>:
  *         HPRE[3:0] bits to ensure that HCLK not exceed the maximum allowed frequency
  *         (for more details refer to section above "Initialization/de-initialization functions")
  * @retval None
  */
HAL_StatusTypeDef HAL_RCC_ClockConfig(RCC_ClkInitTypeDef  *RCC_ClkInitStruct, uint32_t FLatency)
{
 80018dc:	b580      	push	{r7, lr}
 80018de:	b084      	sub	sp, #16
 80018e0:	af00      	add	r7, sp, #0
 80018e2:	6078      	str	r0, [r7, #4]
 80018e4:	6039      	str	r1, [r7, #0]
  uint32_t tickstart;

  /* Check Null pointer */
  if(RCC_ClkInitStruct == NULL)
 80018e6:	687b      	ldr	r3, [r7, #4]
 80018e8:	2b00      	cmp	r3, #0
 80018ea:	d101      	bne.n	80018f0 <HAL_RCC_ClockConfig+0x14>
  {
    return HAL_ERROR;
 80018ec:	2301      	movs	r3, #1
 80018ee:	e0cc      	b.n	8001a8a <HAL_RCC_ClockConfig+0x1ae>
  /* To correctly read data from FLASH memory, the number of wait states (LATENCY)
    must be correctly programmed according to the frequency of the CPU clock
    (HCLK) and the supply voltage of the device. */

  /* Increasing the number of wait states because of higher CPU frequency */
  if(FLatency > __HAL_FLASH_GET_LATENCY())
 80018f0:	4b68      	ldr	r3, [pc, #416]	; (8001a94 <HAL_RCC_ClockConfig+0x1b8>)
 80018f2:	681b      	ldr	r3, [r3, #0]
 80018f4:	f003 0307 	and.w	r3, r3, #7
 80018f8:	683a      	ldr	r2, [r7, #0]
 80018fa:	429a      	cmp	r2, r3
 80018fc:	d90c      	bls.n	8001918 <HAL_RCC_ClockConfig+0x3c>
  {
    /* Program the new number of wait states to the LATENCY bits in the FLASH_ACR register */
    __HAL_FLASH_SET_LATENCY(FLatency);
 80018fe:	4b65      	ldr	r3, [pc, #404]	; (8001a94 <HAL_RCC_ClockConfig+0x1b8>)
 8001900:	683a      	ldr	r2, [r7, #0]
 8001902:	b2d2      	uxtb	r2, r2
 8001904:	701a      	strb	r2, [r3, #0]

    /* Check that the new number of wait states is taken into account to access the Flash
    memory by reading the FLASH_ACR register */
    if(__HAL_FLASH_GET_LATENCY() != FLatency)
 8001906:	4b63      	ldr	r3, [pc, #396]	; (8001a94 <HAL_RCC_ClockConfig+0x1b8>)
 8001908:	681b      	ldr	r3, [r3, #0]
 800190a:	f003 0307 	and.w	r3, r3, #7
 800190e:	683a      	ldr	r2, [r7, #0]
 8001910:	429a      	cmp	r2, r3
 8001912:	d001      	beq.n	8001918 <HAL_RCC_ClockConfig+0x3c>
    {
      return HAL_ERROR;
 8001914:	2301      	movs	r3, #1
 8001916:	e0b8      	b.n	8001a8a <HAL_RCC_ClockConfig+0x1ae>
    }
  }

  /*-------------------------- HCLK Configuration --------------------------*/
  if(((RCC_ClkInitStruct->ClockType) & RCC_CLOCKTYPE_HCLK) == RCC_CLOCKTYPE_HCLK)
 8001918:	687b      	ldr	r3, [r7, #4]
 800191a:	681b      	ldr	r3, [r3, #0]
 800191c:	f003 0302 	and.w	r3, r3, #2
 8001920:	2b00      	cmp	r3, #0
 8001922:	d020      	beq.n	8001966 <HAL_RCC_ClockConfig+0x8a>
  {
    /* Set the highest APBx dividers in order to ensure that we do not go through
       a non-spec phase whatever we decrease or increase HCLK. */
    if(((RCC_ClkInitStruct->ClockType) & RCC_CLOCKTYPE_PCLK1) == RCC_CLOCKTYPE_PCLK1)
 8001924:	687b      	ldr	r3, [r7, #4]
 8001926:	681b      	ldr	r3, [r3, #0]
 8001928:	f003 0304 	and.w	r3, r3, #4
 800192c:	2b00      	cmp	r3, #0
 800192e:	d005      	beq.n	800193c <HAL_RCC_ClockConfig+0x60>
    {
      MODIFY_REG(RCC->CFGR, RCC_CFGR_PPRE1, RCC_HCLK_DIV16);
 8001930:	4b59      	ldr	r3, [pc, #356]	; (8001a98 <HAL_RCC_ClockConfig+0x1bc>)
 8001932:	689b      	ldr	r3, [r3, #8]
 8001934:	4a58      	ldr	r2, [pc, #352]	; (8001a98 <HAL_RCC_ClockConfig+0x1bc>)
 8001936:	f443 53e0 	orr.w	r3, r3, #7168	; 0x1c00
 800193a:	6093      	str	r3, [r2, #8]
    }

    if(((RCC_ClkInitStruct->ClockType) & RCC_CLOCKTYPE_PCLK2) == RCC_CLOCKTYPE_PCLK2)
 800193c:	687b      	ldr	r3, [r7, #4]
 800193e:	681b      	ldr	r3, [r3, #0]
 8001940:	f003 0308 	and.w	r3, r3, #8
 8001944:	2b00      	cmp	r3, #0
 8001946:	d005      	beq.n	8001954 <HAL_RCC_ClockConfig+0x78>
    {
      MODIFY_REG(RCC->CFGR, RCC_CFGR_PPRE2, (RCC_HCLK_DIV16 << 3));
 8001948:	4b53      	ldr	r3, [pc, #332]	; (8001a98 <HAL_RCC_ClockConfig+0x1bc>)
 800194a:	689b      	ldr	r3, [r3, #8]
 800194c:	4a52      	ldr	r2, [pc, #328]	; (8001a98 <HAL_RCC_ClockConfig+0x1bc>)
 800194e:	f443 4360 	orr.w	r3, r3, #57344	; 0xe000
 8001952:	6093      	str	r3, [r2, #8]
    }

    assert_param(IS_RCC_HCLK(RCC_ClkInitStruct->AHBCLKDivider));
    MODIFY_REG(RCC->CFGR, RCC_CFGR_HPRE, RCC_ClkInitStruct->AHBCLKDivider);
 8001954:	4b50      	ldr	r3, [pc, #320]	; (8001a98 <HAL_RCC_ClockConfig+0x1bc>)
 8001956:	689b      	ldr	r3, [r3, #8]
 8001958:	f023 02f0 	bic.w	r2, r3, #240	; 0xf0
 800195c:	687b      	ldr	r3, [r7, #4]
 800195e:	689b      	ldr	r3, [r3, #8]
 8001960:	494d      	ldr	r1, [pc, #308]	; (8001a98 <HAL_RCC_ClockConfig+0x1bc>)
 8001962:	4313      	orrs	r3, r2
 8001964:	608b      	str	r3, [r1, #8]
  }

  /*------------------------- SYSCLK Configuration ---------------------------*/
  if(((RCC_ClkInitStruct->ClockType) & RCC_CLOCKTYPE_SYSCLK) == RCC_CLOCKTYPE_SYSCLK)
 8001966:	687b      	ldr	r3, [r7, #4]
 8001968:	681b      	ldr	r3, [r3, #0]
 800196a:	f003 0301 	and.w	r3, r3, #1
 800196e:	2b00      	cmp	r3, #0
 8001970:	d044      	beq.n	80019fc <HAL_RCC_ClockConfig+0x120>
  {
    assert_param(IS_RCC_SYSCLKSOURCE(RCC_ClkInitStruct->SYSCLKSource));

    /* HSE is selected as System Clock Source */
    if(RCC_ClkInitStruct->SYSCLKSource == RCC_SYSCLKSOURCE_HSE)
 8001972:	687b      	ldr	r3, [r7, #4]
 8001974:	685b      	ldr	r3, [r3, #4]
 8001976:	2b01      	cmp	r3, #1
 8001978:	d107      	bne.n	800198a <HAL_RCC_ClockConfig+0xae>
    {
      /* Check the HSE ready flag */
      if(__HAL_RCC_GET_FLAG(RCC_FLAG_HSERDY) == RESET)
 800197a:	4b47      	ldr	r3, [pc, #284]	; (8001a98 <HAL_RCC_ClockConfig+0x1bc>)
 800197c:	681b      	ldr	r3, [r3, #0]
 800197e:	f403 3300 	and.w	r3, r3, #131072	; 0x20000
 8001982:	2b00      	cmp	r3, #0
 8001984:	d119      	bne.n	80019ba <HAL_RCC_ClockConfig+0xde>
      {
        return HAL_ERROR;
 8001986:	2301      	movs	r3, #1
 8001988:	e07f      	b.n	8001a8a <HAL_RCC_ClockConfig+0x1ae>
      }
    }
    /* PLL is selected as System Clock Source */
    else if((RCC_ClkInitStruct->SYSCLKSource == RCC_SYSCLKSOURCE_PLLCLK)   ||
 800198a:	687b      	ldr	r3, [r7, #4]
 800198c:	685b      	ldr	r3, [r3, #4]
 800198e:	2b02      	cmp	r3, #2
 8001990:	d003      	beq.n	800199a <HAL_RCC_ClockConfig+0xbe>
            (RCC_ClkInitStruct->SYSCLKSource == RCC_SYSCLKSOURCE_PLLRCLK))
 8001992:	687b      	ldr	r3, [r7, #4]
 8001994:	685b      	ldr	r3, [r3, #4]
    else if((RCC_ClkInitStruct->SYSCLKSource == RCC_SYSCLKSOURCE_PLLCLK)   ||
 8001996:	2b03      	cmp	r3, #3
 8001998:	d107      	bne.n	80019aa <HAL_RCC_ClockConfig+0xce>
    {
      /* Check the PLL ready flag */
      if(__HAL_RCC_GET_FLAG(RCC_FLAG_PLLRDY) == RESET)
 800199a:	4b3f      	ldr	r3, [pc, #252]	; (8001a98 <HAL_RCC_ClockConfig+0x1bc>)
 800199c:	681b      	ldr	r3, [r3, #0]
 800199e:	f003 7300 	and.w	r3, r3, #33554432	; 0x2000000
 80019a2:	2b00      	cmp	r3, #0
 80019a4:	d109      	bne.n	80019ba <HAL_RCC_ClockConfig+0xde>
      {
        return HAL_ERROR;
 80019a6:	2301      	movs	r3, #1
 80019a8:	e06f      	b.n	8001a8a <HAL_RCC_ClockConfig+0x1ae>
    }
    /* HSI is selected as System Clock Source */
    else
    {
      /* Check the HSI ready flag */
      if(__HAL_RCC_GET_FLAG(RCC_FLAG_HSIRDY) == RESET)
 80019aa:	4b3b      	ldr	r3, [pc, #236]	; (8001a98 <HAL_RCC_ClockConfig+0x1bc>)
 80019ac:	681b      	ldr	r3, [r3, #0]
 80019ae:	f003 0302 	and.w	r3, r3, #2
 80019b2:	2b00      	cmp	r3, #0
 80019b4:	d101      	bne.n	80019ba <HAL_RCC_ClockConfig+0xde>
      {
        return HAL_ERROR;
 80019b6:	2301      	movs	r3, #1
 80019b8:	e067      	b.n	8001a8a <HAL_RCC_ClockConfig+0x1ae>
      }
    }

    __HAL_RCC_SYSCLK_CONFIG(RCC_ClkInitStruct->SYSCLKSource);
 80019ba:	4b37      	ldr	r3, [pc, #220]	; (8001a98 <HAL_RCC_ClockConfig+0x1bc>)
 80019bc:	689b      	ldr	r3, [r3, #8]
 80019be:	f023 0203 	bic.w	r2, r3, #3
 80019c2:	687b      	ldr	r3, [r7, #4]
 80019c4:	685b      	ldr	r3, [r3, #4]
 80019c6:	4934      	ldr	r1, [pc, #208]	; (8001a98 <HAL_RCC_ClockConfig+0x1bc>)
 80019c8:	4313      	orrs	r3, r2
 80019ca:	608b      	str	r3, [r1, #8]

    /* Get Start Tick */
    tickstart = HAL_GetTick();
 80019cc:	f7ff f9fe 	bl	8000dcc <HAL_GetTick>
 80019d0:	60f8      	str	r0, [r7, #12]

    while (__HAL_RCC_GET_SYSCLK_SOURCE() != (RCC_ClkInitStruct->SYSCLKSource << RCC_CFGR_SWS_Pos))
 80019d2:	e00a      	b.n	80019ea <HAL_RCC_ClockConfig+0x10e>
    {
      if ((HAL_GetTick() - tickstart) > CLOCKSWITCH_TIMEOUT_VALUE)
 80019d4:	f7ff f9fa 	bl	8000dcc <HAL_GetTick>
 80019d8:	4602      	mov	r2, r0
 80019da:	68fb      	ldr	r3, [r7, #12]
 80019dc:	1ad3      	subs	r3, r2, r3
 80019de:	f241 3288 	movw	r2, #5000	; 0x1388
 80019e2:	4293      	cmp	r3, r2
 80019e4:	d901      	bls.n	80019ea <HAL_RCC_ClockConfig+0x10e>
      {
        return HAL_TIMEOUT;
 80019e6:	2303      	movs	r3, #3
 80019e8:	e04f      	b.n	8001a8a <HAL_RCC_ClockConfig+0x1ae>
    while (__HAL_RCC_GET_SYSCLK_SOURCE() != (RCC_ClkInitStruct->SYSCLKSource << RCC_CFGR_SWS_Pos))
 80019ea:	4b2b      	ldr	r3, [pc, #172]	; (8001a98 <HAL_RCC_ClockConfig+0x1bc>)
 80019ec:	689b      	ldr	r3, [r3, #8]
 80019ee:	f003 020c 	and.w	r2, r3, #12
 80019f2:	687b      	ldr	r3, [r7, #4]
 80019f4:	685b      	ldr	r3, [r3, #4]
 80019f6:	009b      	lsls	r3, r3, #2
 80019f8:	429a      	cmp	r2, r3
 80019fa:	d1eb      	bne.n	80019d4 <HAL_RCC_ClockConfig+0xf8>
      }
    }
  }

  /* Decreasing the number of wait states because of lower CPU frequency */
  if(FLatency < __HAL_FLASH_GET_LATENCY())
 80019fc:	4b25      	ldr	r3, [pc, #148]	; (8001a94 <HAL_RCC_ClockConfig+0x1b8>)
 80019fe:	681b      	ldr	r3, [r3, #0]
 8001a00:	f003 0307 	and.w	r3, r3, #7
 8001a04:	683a      	ldr	r2, [r7, #0]
 8001a06:	429a      	cmp	r2, r3
 8001a08:	d20c      	bcs.n	8001a24 <HAL_RCC_ClockConfig+0x148>
  {
     /* Program the new number of wait states to the LATENCY bits in the FLASH_ACR register */
    __HAL_FLASH_SET_LATENCY(FLatency);
 8001a0a:	4b22      	ldr	r3, [pc, #136]	; (8001a94 <HAL_RCC_ClockConfig+0x1b8>)
 8001a0c:	683a      	ldr	r2, [r7, #0]
 8001a0e:	b2d2      	uxtb	r2, r2
 8001a10:	701a      	strb	r2, [r3, #0]

    /* Check that the new number of wait states is taken into account to access the Flash
    memory by reading the FLASH_ACR register */
    if(__HAL_FLASH_GET_LATENCY() != FLatency)
 8001a12:	4b20      	ldr	r3, [pc, #128]	; (8001a94 <HAL_RCC_ClockConfig+0x1b8>)
 8001a14:	681b      	ldr	r3, [r3, #0]
 8001a16:	f003 0307 	and.w	r3, r3, #7
 8001a1a:	683a      	ldr	r2, [r7, #0]
 8001a1c:	429a      	cmp	r2, r3
 8001a1e:	d001      	beq.n	8001a24 <HAL_RCC_ClockConfig+0x148>
    {
      return HAL_ERROR;
 8001a20:	2301      	movs	r3, #1
 8001a22:	e032      	b.n	8001a8a <HAL_RCC_ClockConfig+0x1ae>
    }
  }

  /*-------------------------- PCLK1 Configuration ---------------------------*/
  if(((RCC_ClkInitStruct->ClockType) & RCC_CLOCKTYPE_PCLK1) == RCC_CLOCKTYPE_PCLK1)
 8001a24:	687b      	ldr	r3, [r7, #4]
 8001a26:	681b      	ldr	r3, [r3, #0]
 8001a28:	f003 0304 	and.w	r3, r3, #4
 8001a2c:	2b00      	cmp	r3, #0
 8001a2e:	d008      	beq.n	8001a42 <HAL_RCC_ClockConfig+0x166>
  {
    assert_param(IS_RCC_PCLK(RCC_ClkInitStruct->APB1CLKDivider));
    MODIFY_REG(RCC->CFGR, RCC_CFGR_PPRE1, RCC_ClkInitStruct->APB1CLKDivider);
 8001a30:	4b19      	ldr	r3, [pc, #100]	; (8001a98 <HAL_RCC_ClockConfig+0x1bc>)
 8001a32:	689b      	ldr	r3, [r3, #8]
 8001a34:	f423 52e0 	bic.w	r2, r3, #7168	; 0x1c00
 8001a38:	687b      	ldr	r3, [r7, #4]
 8001a3a:	68db      	ldr	r3, [r3, #12]
 8001a3c:	4916      	ldr	r1, [pc, #88]	; (8001a98 <HAL_RCC_ClockConfig+0x1bc>)
 8001a3e:	4313      	orrs	r3, r2
 8001a40:	608b      	str	r3, [r1, #8]
  }

  /*-------------------------- PCLK2 Configuration ---------------------------*/
  if(((RCC_ClkInitStruct->ClockType) & RCC_CLOCKTYPE_PCLK2) == RCC_CLOCKTYPE_PCLK2)
 8001a42:	687b      	ldr	r3, [r7, #4]
 8001a44:	681b      	ldr	r3, [r3, #0]
 8001a46:	f003 0308 	and.w	r3, r3, #8
 8001a4a:	2b00      	cmp	r3, #0
 8001a4c:	d009      	beq.n	8001a62 <HAL_RCC_ClockConfig+0x186>
  {
    assert_param(IS_RCC_PCLK(RCC_ClkInitStruct->APB2CLKDivider));
    MODIFY_REG(RCC->CFGR, RCC_CFGR_PPRE2, ((RCC_ClkInitStruct->APB2CLKDivider) << 3U));
 8001a4e:	4b12      	ldr	r3, [pc, #72]	; (8001a98 <HAL_RCC_ClockConfig+0x1bc>)
 8001a50:	689b      	ldr	r3, [r3, #8]
 8001a52:	f423 4260 	bic.w	r2, r3, #57344	; 0xe000
 8001a56:	687b      	ldr	r3, [r7, #4]
 8001a58:	691b      	ldr	r3, [r3, #16]
 8001a5a:	00db      	lsls	r3, r3, #3
 8001a5c:	490e      	ldr	r1, [pc, #56]	; (8001a98 <HAL_RCC_ClockConfig+0x1bc>)
 8001a5e:	4313      	orrs	r3, r2
 8001a60:	608b      	str	r3, [r1, #8]
  }

  /* Update the SystemCoreClock global variable */
  SystemCoreClock = HAL_RCC_GetSysClockFreq() >> AHBPrescTable[(RCC->CFGR & RCC_CFGR_HPRE)>> RCC_CFGR_HPRE_Pos];
 8001a62:	f000 f821 	bl	8001aa8 <HAL_RCC_GetSysClockFreq>
 8001a66:	4602      	mov	r2, r0
 8001a68:	4b0b      	ldr	r3, [pc, #44]	; (8001a98 <HAL_RCC_ClockConfig+0x1bc>)
 8001a6a:	689b      	ldr	r3, [r3, #8]
 8001a6c:	091b      	lsrs	r3, r3, #4
 8001a6e:	f003 030f 	and.w	r3, r3, #15
 8001a72:	490a      	ldr	r1, [pc, #40]	; (8001a9c <HAL_RCC_ClockConfig+0x1c0>)
 8001a74:	5ccb      	ldrb	r3, [r1, r3]
 8001a76:	fa22 f303 	lsr.w	r3, r2, r3
 8001a7a:	4a09      	ldr	r2, [pc, #36]	; (8001aa0 <HAL_RCC_ClockConfig+0x1c4>)
 8001a7c:	6013      	str	r3, [r2, #0]

  /* Configure the source of time base considering new system clocks settings */
  HAL_InitTick (uwTickPrio);
 8001a7e:	4b09      	ldr	r3, [pc, #36]	; (8001aa4 <HAL_RCC_ClockConfig+0x1c8>)
 8001a80:	681b      	ldr	r3, [r3, #0]
 8001a82:	4618      	mov	r0, r3
 8001a84:	f7ff f95e 	bl	8000d44 <HAL_InitTick>

  return HAL_OK;
 8001a88:	2300      	movs	r3, #0
}
 8001a8a:	4618      	mov	r0, r3
 8001a8c:	3710      	adds	r7, #16
 8001a8e:	46bd      	mov	sp, r7
 8001a90:	bd80      	pop	{r7, pc}
 8001a92:	bf00      	nop
 8001a94:	40023c00 	.word	0x40023c00
 8001a98:	40023800 	.word	0x40023800
 8001a9c:	08003964 	.word	0x08003964
 8001aa0:	20000000 	.word	0x20000000
 8001aa4:	20000004 	.word	0x20000004

08001aa8 <HAL_RCC_GetSysClockFreq>:
  *
  *
  * @retval SYSCLK frequency
  */
__weak uint32_t HAL_RCC_GetSysClockFreq(void)
{
 8001aa8:	e92d 4fb0 	stmdb	sp!, {r4, r5, r7, r8, r9, sl, fp, lr}
 8001aac:	b094      	sub	sp, #80	; 0x50
 8001aae:	af00      	add	r7, sp, #0
  uint32_t pllm = 0U, pllvco = 0U, pllp = 0U;
 8001ab0:	2300      	movs	r3, #0
 8001ab2:	647b      	str	r3, [r7, #68]	; 0x44
 8001ab4:	2300      	movs	r3, #0
 8001ab6:	64fb      	str	r3, [r7, #76]	; 0x4c
 8001ab8:	2300      	movs	r3, #0
 8001aba:	643b      	str	r3, [r7, #64]	; 0x40
  uint32_t sysclockfreq = 0U;
 8001abc:	2300      	movs	r3, #0
 8001abe:	64bb      	str	r3, [r7, #72]	; 0x48

  /* Get SYSCLK source -------------------------------------------------------*/
  switch (RCC->CFGR & RCC_CFGR_SWS)
 8001ac0:	4b79      	ldr	r3, [pc, #484]	; (8001ca8 <HAL_RCC_GetSysClockFreq+0x200>)
 8001ac2:	689b      	ldr	r3, [r3, #8]
 8001ac4:	f003 030c 	and.w	r3, r3, #12
 8001ac8:	2b08      	cmp	r3, #8
 8001aca:	d00d      	beq.n	8001ae8 <HAL_RCC_GetSysClockFreq+0x40>
 8001acc:	2b08      	cmp	r3, #8
 8001ace:	f200 80e1 	bhi.w	8001c94 <HAL_RCC_GetSysClockFreq+0x1ec>
 8001ad2:	2b00      	cmp	r3, #0
 8001ad4:	d002      	beq.n	8001adc <HAL_RCC_GetSysClockFreq+0x34>
 8001ad6:	2b04      	cmp	r3, #4
 8001ad8:	d003      	beq.n	8001ae2 <HAL_RCC_GetSysClockFreq+0x3a>
 8001ada:	e0db      	b.n	8001c94 <HAL_RCC_GetSysClockFreq+0x1ec>
  {
    case RCC_CFGR_SWS_HSI:  /* HSI used as system clock source */
    {
      sysclockfreq = HSI_VALUE;
 8001adc:	4b73      	ldr	r3, [pc, #460]	; (8001cac <HAL_RCC_GetSysClockFreq+0x204>)
 8001ade:	64bb      	str	r3, [r7, #72]	; 0x48
       break;
 8001ae0:	e0db      	b.n	8001c9a <HAL_RCC_GetSysClockFreq+0x1f2>
    }
    case RCC_CFGR_SWS_HSE:  /* HSE used as system clock  source */
    {
      sysclockfreq = HSE_VALUE;
 8001ae2:	4b73      	ldr	r3, [pc, #460]	; (8001cb0 <HAL_RCC_GetSysClockFreq+0x208>)
 8001ae4:	64bb      	str	r3, [r7, #72]	; 0x48
      break;
 8001ae6:	e0d8      	b.n	8001c9a <HAL_RCC_GetSysClockFreq+0x1f2>
    }
    case RCC_CFGR_SWS_PLL:  /* PLL used as system clock  source */
    {
      /* PLL_VCO = (HSE_VALUE or HSI_VALUE / PLLM) * PLLN
      SYSCLK = PLL_VCO / PLLP */
      pllm = RCC->PLLCFGR & RCC_PLLCFGR_PLLM;
 8001ae8:	4b6f      	ldr	r3, [pc, #444]	; (8001ca8 <HAL_RCC_GetSysClockFreq+0x200>)
 8001aea:	685b      	ldr	r3, [r3, #4]
 8001aec:	f003 033f 	and.w	r3, r3, #63	; 0x3f
 8001af0:	647b      	str	r3, [r7, #68]	; 0x44
      if(__HAL_RCC_GET_PLL_OSCSOURCE() != RCC_PLLSOURCE_HSI)
 8001af2:	4b6d      	ldr	r3, [pc, #436]	; (8001ca8 <HAL_RCC_GetSysClockFreq+0x200>)
 8001af4:	685b      	ldr	r3, [r3, #4]
 8001af6:	f403 0380 	and.w	r3, r3, #4194304	; 0x400000
 8001afa:	2b00      	cmp	r3, #0
 8001afc:	d063      	beq.n	8001bc6 <HAL_RCC_GetSysClockFreq+0x11e>
      {
        /* HSE used as PLL clock source */
        pllvco = (uint32_t) ((((uint64_t) HSE_VALUE * ((uint64_t) ((RCC->PLLCFGR & RCC_PLLCFGR_PLLN) >> RCC_PLLCFGR_PLLN_Pos)))) / (uint64_t)pllm);
 8001afe:	4b6a      	ldr	r3, [pc, #424]	; (8001ca8 <HAL_RCC_GetSysClockFreq+0x200>)
 8001b00:	685b      	ldr	r3, [r3, #4]
 8001b02:	099b      	lsrs	r3, r3, #6
 8001b04:	2200      	movs	r2, #0
 8001b06:	63bb      	str	r3, [r7, #56]	; 0x38
 8001b08:	63fa      	str	r2, [r7, #60]	; 0x3c
 8001b0a:	6bbb      	ldr	r3, [r7, #56]	; 0x38
 8001b0c:	f3c3 0308 	ubfx	r3, r3, #0, #9
 8001b10:	633b      	str	r3, [r7, #48]	; 0x30
 8001b12:	2300      	movs	r3, #0
 8001b14:	637b      	str	r3, [r7, #52]	; 0x34
 8001b16:	e9d7 450c 	ldrd	r4, r5, [r7, #48]	; 0x30
 8001b1a:	4622      	mov	r2, r4
 8001b1c:	462b      	mov	r3, r5
 8001b1e:	f04f 0000 	mov.w	r0, #0
 8001b22:	f04f 0100 	mov.w	r1, #0
 8001b26:	0159      	lsls	r1, r3, #5
 8001b28:	ea41 61d2 	orr.w	r1, r1, r2, lsr #27
 8001b2c:	0150      	lsls	r0, r2, #5
 8001b2e:	4602      	mov	r2, r0
 8001b30:	460b      	mov	r3, r1
 8001b32:	4621      	mov	r1, r4
 8001b34:	1a51      	subs	r1, r2, r1
 8001b36:	6139      	str	r1, [r7, #16]
 8001b38:	4629      	mov	r1, r5
 8001b3a:	eb63 0301 	sbc.w	r3, r3, r1
 8001b3e:	617b      	str	r3, [r7, #20]
 8001b40:	f04f 0200 	mov.w	r2, #0
 8001b44:	f04f 0300 	mov.w	r3, #0
 8001b48:	e9d7 ab04 	ldrd	sl, fp, [r7, #16]
 8001b4c:	4659      	mov	r1, fp
 8001b4e:	018b      	lsls	r3, r1, #6
 8001b50:	4651      	mov	r1, sl
 8001b52:	ea43 6391 	orr.w	r3, r3, r1, lsr #26
 8001b56:	4651      	mov	r1, sl
 8001b58:	018a      	lsls	r2, r1, #6
 8001b5a:	4651      	mov	r1, sl
 8001b5c:	ebb2 0801 	subs.w	r8, r2, r1
 8001b60:	4659      	mov	r1, fp
 8001b62:	eb63 0901 	sbc.w	r9, r3, r1
 8001b66:	f04f 0200 	mov.w	r2, #0
 8001b6a:	f04f 0300 	mov.w	r3, #0
 8001b6e:	ea4f 03c9 	mov.w	r3, r9, lsl #3
 8001b72:	ea43 7358 	orr.w	r3, r3, r8, lsr #29
 8001b76:	ea4f 02c8 	mov.w	r2, r8, lsl #3
 8001b7a:	4690      	mov	r8, r2
 8001b7c:	4699      	mov	r9, r3
 8001b7e:	4623      	mov	r3, r4
 8001b80:	eb18 0303 	adds.w	r3, r8, r3
 8001b84:	60bb      	str	r3, [r7, #8]
 8001b86:	462b      	mov	r3, r5
 8001b88:	eb49 0303 	adc.w	r3, r9, r3
 8001b8c:	60fb      	str	r3, [r7, #12]
 8001b8e:	f04f 0200 	mov.w	r2, #0
 8001b92:	f04f 0300 	mov.w	r3, #0
 8001b96:	e9d7 4502 	ldrd	r4, r5, [r7, #8]
 8001b9a:	4629      	mov	r1, r5
 8001b9c:	024b      	lsls	r3, r1, #9
 8001b9e:	4621      	mov	r1, r4
 8001ba0:	ea43 53d1 	orr.w	r3, r3, r1, lsr #23
 8001ba4:	4621      	mov	r1, r4
 8001ba6:	024a      	lsls	r2, r1, #9
 8001ba8:	4610      	mov	r0, r2
 8001baa:	4619      	mov	r1, r3
 8001bac:	6c7b      	ldr	r3, [r7, #68]	; 0x44
 8001bae:	2200      	movs	r2, #0
 8001bb0:	62bb      	str	r3, [r7, #40]	; 0x28
 8001bb2:	62fa      	str	r2, [r7, #44]	; 0x2c
 8001bb4:	e9d7 230a 	ldrd	r2, r3, [r7, #40]	; 0x28
 8001bb8:	f7fe fb62 	bl	8000280 <__aeabi_uldivmod>
 8001bbc:	4602      	mov	r2, r0
 8001bbe:	460b      	mov	r3, r1
 8001bc0:	4613      	mov	r3, r2
 8001bc2:	64fb      	str	r3, [r7, #76]	; 0x4c
 8001bc4:	e058      	b.n	8001c78 <HAL_RCC_GetSysClockFreq+0x1d0>
      }
      else
      {
        /* HSI used as PLL clock source */
        pllvco = (uint32_t) ((((uint64_t) HSI_VALUE * ((uint64_t) ((RCC->PLLCFGR & RCC_PLLCFGR_PLLN) >> RCC_PLLCFGR_PLLN_Pos)))) / (uint64_t)pllm);
 8001bc6:	4b38      	ldr	r3, [pc, #224]	; (8001ca8 <HAL_RCC_GetSysClockFreq+0x200>)
 8001bc8:	685b      	ldr	r3, [r3, #4]
 8001bca:	099b      	lsrs	r3, r3, #6
 8001bcc:	2200      	movs	r2, #0
 8001bce:	4618      	mov	r0, r3
 8001bd0:	4611      	mov	r1, r2
 8001bd2:	f3c0 0308 	ubfx	r3, r0, #0, #9
 8001bd6:	623b      	str	r3, [r7, #32]
 8001bd8:	2300      	movs	r3, #0
 8001bda:	627b      	str	r3, [r7, #36]	; 0x24
 8001bdc:	e9d7 8908 	ldrd	r8, r9, [r7, #32]
 8001be0:	4642      	mov	r2, r8
 8001be2:	464b      	mov	r3, r9
 8001be4:	f04f 0000 	mov.w	r0, #0
 8001be8:	f04f 0100 	mov.w	r1, #0
 8001bec:	0159      	lsls	r1, r3, #5
 8001bee:	ea41 61d2 	orr.w	r1, r1, r2, lsr #27
 8001bf2:	0150      	lsls	r0, r2, #5
 8001bf4:	4602      	mov	r2, r0
 8001bf6:	460b      	mov	r3, r1
 8001bf8:	4641      	mov	r1, r8
 8001bfa:	ebb2 0a01 	subs.w	sl, r2, r1
 8001bfe:	4649      	mov	r1, r9
 8001c00:	eb63 0b01 	sbc.w	fp, r3, r1
 8001c04:	f04f 0200 	mov.w	r2, #0
 8001c08:	f04f 0300 	mov.w	r3, #0
 8001c0c:	ea4f 138b 	mov.w	r3, fp, lsl #6
 8001c10:	ea43 639a 	orr.w	r3, r3, sl, lsr #26
 8001c14:	ea4f 128a 	mov.w	r2, sl, lsl #6
 8001c18:	ebb2 040a 	subs.w	r4, r2, sl
 8001c1c:	eb63 050b 	sbc.w	r5, r3, fp
 8001c20:	f04f 0200 	mov.w	r2, #0
 8001c24:	f04f 0300 	mov.w	r3, #0
 8001c28:	00eb      	lsls	r3, r5, #3
 8001c2a:	ea43 7354 	orr.w	r3, r3, r4, lsr #29
 8001c2e:	00e2      	lsls	r2, r4, #3
 8001c30:	4614      	mov	r4, r2
 8001c32:	461d      	mov	r5, r3
 8001c34:	4643      	mov	r3, r8
 8001c36:	18e3      	adds	r3, r4, r3
 8001c38:	603b      	str	r3, [r7, #0]
 8001c3a:	464b      	mov	r3, r9
 8001c3c:	eb45 0303 	adc.w	r3, r5, r3
 8001c40:	607b      	str	r3, [r7, #4]
 8001c42:	f04f 0200 	mov.w	r2, #0
 8001c46:	f04f 0300 	mov.w	r3, #0
 8001c4a:	e9d7 4500 	ldrd	r4, r5, [r7]
 8001c4e:	4629      	mov	r1, r5
 8001c50:	028b      	lsls	r3, r1, #10
 8001c52:	4621      	mov	r1, r4
 8001c54:	ea43 5391 	orr.w	r3, r3, r1, lsr #22
 8001c58:	4621      	mov	r1, r4
 8001c5a:	028a      	lsls	r2, r1, #10
 8001c5c:	4610      	mov	r0, r2
 8001c5e:	4619      	mov	r1, r3
 8001c60:	6c7b      	ldr	r3, [r7, #68]	; 0x44
 8001c62:	2200      	movs	r2, #0
 8001c64:	61bb      	str	r3, [r7, #24]
 8001c66:	61fa      	str	r2, [r7, #28]
 8001c68:	e9d7 2306 	ldrd	r2, r3, [r7, #24]
 8001c6c:	f7fe fb08 	bl	8000280 <__aeabi_uldivmod>
 8001c70:	4602      	mov	r2, r0
 8001c72:	460b      	mov	r3, r1
 8001c74:	4613      	mov	r3, r2
 8001c76:	64fb      	str	r3, [r7, #76]	; 0x4c
      }
      pllp = ((((RCC->PLLCFGR & RCC_PLLCFGR_PLLP) >> RCC_PLLCFGR_PLLP_Pos) + 1U) *2U);
 8001c78:	4b0b      	ldr	r3, [pc, #44]	; (8001ca8 <HAL_RCC_GetSysClockFreq+0x200>)
 8001c7a:	685b      	ldr	r3, [r3, #4]
 8001c7c:	0c1b      	lsrs	r3, r3, #16
 8001c7e:	f003 0303 	and.w	r3, r3, #3
 8001c82:	3301      	adds	r3, #1
 8001c84:	005b      	lsls	r3, r3, #1
 8001c86:	643b      	str	r3, [r7, #64]	; 0x40

      sysclockfreq = pllvco/pllp;
 8001c88:	6cfa      	ldr	r2, [r7, #76]	; 0x4c
 8001c8a:	6c3b      	ldr	r3, [r7, #64]	; 0x40
 8001c8c:	fbb2 f3f3 	udiv	r3, r2, r3
 8001c90:	64bb      	str	r3, [r7, #72]	; 0x48
      break;
 8001c92:	e002      	b.n	8001c9a <HAL_RCC_GetSysClockFreq+0x1f2>
    }
    default:
    {
      sysclockfreq = HSI_VALUE;
 8001c94:	4b05      	ldr	r3, [pc, #20]	; (8001cac <HAL_RCC_GetSysClockFreq+0x204>)
 8001c96:	64bb      	str	r3, [r7, #72]	; 0x48
      break;
 8001c98:	bf00      	nop
    }
  }
  return sysclockfreq;
 8001c9a:	6cbb      	ldr	r3, [r7, #72]	; 0x48
}
 8001c9c:	4618      	mov	r0, r3
 8001c9e:	3750      	adds	r7, #80	; 0x50
 8001ca0:	46bd      	mov	sp, r7
 8001ca2:	e8bd 8fb0 	ldmia.w	sp!, {r4, r5, r7, r8, r9, sl, fp, pc}
 8001ca6:	bf00      	nop
 8001ca8:	40023800 	.word	0x40023800
 8001cac:	00f42400 	.word	0x00f42400
 8001cb0:	007a1200 	.word	0x007a1200

08001cb4 <HAL_RCC_GetHCLKFreq>:
  * @note   The SystemCoreClock CMSIS variable is used to store System Clock Frequency
  *         and updated within this function
  * @retval HCLK frequency
  */
uint32_t HAL_RCC_GetHCLKFreq(void)
{
 8001cb4:	b480      	push	{r7}
 8001cb6:	af00      	add	r7, sp, #0
  return SystemCoreClock;
 8001cb8:	4b03      	ldr	r3, [pc, #12]	; (8001cc8 <HAL_RCC_GetHCLKFreq+0x14>)
 8001cba:	681b      	ldr	r3, [r3, #0]
}
 8001cbc:	4618      	mov	r0, r3
 8001cbe:	46bd      	mov	sp, r7
 8001cc0:	f85d 7b04 	ldr.w	r7, [sp], #4
 8001cc4:	4770      	bx	lr
 8001cc6:	bf00      	nop
 8001cc8:	20000000 	.word	0x20000000

08001ccc <HAL_RCC_GetPCLK1Freq>:
  * @note   Each time PCLK1 changes, this function must be called to update the
  *         right PCLK1 value. Otherwise, any configuration based on this function will be incorrect.
  * @retval PCLK1 frequency
  */
uint32_t HAL_RCC_GetPCLK1Freq(void)
{
 8001ccc:	b580      	push	{r7, lr}
 8001cce:	af00      	add	r7, sp, #0
  /* Get HCLK source and Compute PCLK1 frequency ---------------------------*/
  return (HAL_RCC_GetHCLKFreq() >> APBPrescTable[(RCC->CFGR & RCC_CFGR_PPRE1)>> RCC_CFGR_PPRE1_Pos]);
 8001cd0:	f7ff fff0 	bl	8001cb4 <HAL_RCC_GetHCLKFreq>
 8001cd4:	4602      	mov	r2, r0
 8001cd6:	4b05      	ldr	r3, [pc, #20]	; (8001cec <HAL_RCC_GetPCLK1Freq+0x20>)
 8001cd8:	689b      	ldr	r3, [r3, #8]
 8001cda:	0a9b      	lsrs	r3, r3, #10
 8001cdc:	f003 0307 	and.w	r3, r3, #7
 8001ce0:	4903      	ldr	r1, [pc, #12]	; (8001cf0 <HAL_RCC_GetPCLK1Freq+0x24>)
 8001ce2:	5ccb      	ldrb	r3, [r1, r3]
 8001ce4:	fa22 f303 	lsr.w	r3, r2, r3
}
 8001ce8:	4618      	mov	r0, r3
 8001cea:	bd80      	pop	{r7, pc}
 8001cec:	40023800 	.word	0x40023800
 8001cf0:	08003974 	.word	0x08003974

08001cf4 <HAL_RCC_GetPCLK2Freq>:
  * @note   Each time PCLK2 changes, this function must be called to update the
  *         right PCLK2 value. Otherwise, any configuration based on this function will be incorrect.
  * @retval PCLK2 frequency
  */
uint32_t HAL_RCC_GetPCLK2Freq(void)
{
 8001cf4:	b580      	push	{r7, lr}
 8001cf6:	af00      	add	r7, sp, #0
  /* Get HCLK source and Compute PCLK2 frequency ---------------------------*/
  return (HAL_RCC_GetHCLKFreq()>> APBPrescTable[(RCC->CFGR & RCC_CFGR_PPRE2)>> RCC_CFGR_PPRE2_Pos]);
 8001cf8:	f7ff ffdc 	bl	8001cb4 <HAL_RCC_GetHCLKFreq>
 8001cfc:	4602      	mov	r2, r0
 8001cfe:	4b05      	ldr	r3, [pc, #20]	; (8001d14 <HAL_RCC_GetPCLK2Freq+0x20>)
 8001d00:	689b      	ldr	r3, [r3, #8]
 8001d02:	0b5b      	lsrs	r3, r3, #13
 8001d04:	f003 0307 	and.w	r3, r3, #7
 8001d08:	4903      	ldr	r1, [pc, #12]	; (8001d18 <HAL_RCC_GetPCLK2Freq+0x24>)
 8001d0a:	5ccb      	ldrb	r3, [r1, r3]
 8001d0c:	fa22 f303 	lsr.w	r3, r2, r3
}
 8001d10:	4618      	mov	r0, r3
 8001d12:	bd80      	pop	{r7, pc}
 8001d14:	40023800 	.word	0x40023800
 8001d18:	08003974 	.word	0x08003974

08001d1c <HAL_SPI_Init>:
  * @param  hspi pointer to a SPI_HandleTypeDef structure that contains
  *               the configuration information for SPI module.
  * @retval HAL status
  */
HAL_StatusTypeDef HAL_SPI_Init(SPI_HandleTypeDef *hspi)
{
 8001d1c:	b580      	push	{r7, lr}
 8001d1e:	b082      	sub	sp, #8
 8001d20:	af00      	add	r7, sp, #0
 8001d22:	6078      	str	r0, [r7, #4]
  /* Check the SPI handle allocation */
  if (hspi == NULL)
 8001d24:	687b      	ldr	r3, [r7, #4]
 8001d26:	2b00      	cmp	r3, #0
 8001d28:	d101      	bne.n	8001d2e <HAL_SPI_Init+0x12>
  {
    return HAL_ERROR;
 8001d2a:	2301      	movs	r3, #1
 8001d2c:	e07b      	b.n	8001e26 <HAL_SPI_Init+0x10a>
  assert_param(IS_SPI_DATASIZE(hspi->Init.DataSize));
  assert_param(IS_SPI_NSS(hspi->Init.NSS));
  assert_param(IS_SPI_BAUDRATE_PRESCALER(hspi->Init.BaudRatePrescaler));
  assert_param(IS_SPI_FIRST_BIT(hspi->Init.FirstBit));
  assert_param(IS_SPI_TIMODE(hspi->Init.TIMode));
  if (hspi->Init.TIMode == SPI_TIMODE_DISABLE)
 8001d2e:	687b      	ldr	r3, [r7, #4]
 8001d30:	6a5b      	ldr	r3, [r3, #36]	; 0x24
 8001d32:	2b00      	cmp	r3, #0
 8001d34:	d108      	bne.n	8001d48 <HAL_SPI_Init+0x2c>
  {
    assert_param(IS_SPI_CPOL(hspi->Init.CLKPolarity));
    assert_param(IS_SPI_CPHA(hspi->Init.CLKPhase));

    if (hspi->Init.Mode == SPI_MODE_MASTER)
 8001d36:	687b      	ldr	r3, [r7, #4]
 8001d38:	685b      	ldr	r3, [r3, #4]
 8001d3a:	f5b3 7f82 	cmp.w	r3, #260	; 0x104
 8001d3e:	d009      	beq.n	8001d54 <HAL_SPI_Init+0x38>
      assert_param(IS_SPI_BAUDRATE_PRESCALER(hspi->Init.BaudRatePrescaler));
    }
    else
    {
      /* Baudrate prescaler not use in Motoraola Slave mode. force to default value */
      hspi->Init.BaudRatePrescaler = SPI_BAUDRATEPRESCALER_2;
 8001d40:	687b      	ldr	r3, [r7, #4]
 8001d42:	2200      	movs	r2, #0
 8001d44:	61da      	str	r2, [r3, #28]
 8001d46:	e005      	b.n	8001d54 <HAL_SPI_Init+0x38>
  else
  {
    assert_param(IS_SPI_BAUDRATE_PRESCALER(hspi->Init.BaudRatePrescaler));

    /* Force polarity and phase to TI protocaol requirements */
    hspi->Init.CLKPolarity = SPI_POLARITY_LOW;
 8001d48:	687b      	ldr	r3, [r7, #4]
 8001d4a:	2200      	movs	r2, #0
 8001d4c:	611a      	str	r2, [r3, #16]
    hspi->Init.CLKPhase    = SPI_PHASE_1EDGE;
 8001d4e:	687b      	ldr	r3, [r7, #4]
 8001d50:	2200      	movs	r2, #0
 8001d52:	615a      	str	r2, [r3, #20]
  if (hspi->Init.CRCCalculation == SPI_CRCCALCULATION_ENABLE)
  {
    assert_param(IS_SPI_CRC_POLYNOMIAL(hspi->Init.CRCPolynomial));
  }
#else
  hspi->Init.CRCCalculation = SPI_CRCCALCULATION_DISABLE;
 8001d54:	687b      	ldr	r3, [r7, #4]
 8001d56:	2200      	movs	r2, #0
 8001d58:	629a      	str	r2, [r3, #40]	; 0x28
#endif /* USE_SPI_CRC */

  if (hspi->State == HAL_SPI_STATE_RESET)
 8001d5a:	687b      	ldr	r3, [r7, #4]
 8001d5c:	f893 3051 	ldrb.w	r3, [r3, #81]	; 0x51
 8001d60:	b2db      	uxtb	r3, r3
 8001d62:	2b00      	cmp	r3, #0
 8001d64:	d106      	bne.n	8001d74 <HAL_SPI_Init+0x58>
  {
    /* Allocate lock resource and initialize it */
    hspi->Lock = HAL_UNLOCKED;
 8001d66:	687b      	ldr	r3, [r7, #4]
 8001d68:	2200      	movs	r2, #0
 8001d6a:	f883 2050 	strb.w	r2, [r3, #80]	; 0x50

    /* Init the low level hardware : GPIO, CLOCK, NVIC... */
    hspi->MspInitCallback(hspi);
#else
    /* Init the low level hardware : GPIO, CLOCK, NVIC... */
    HAL_SPI_MspInit(hspi);
 8001d6e:	6878      	ldr	r0, [r7, #4]
 8001d70:	f7fe fe92 	bl	8000a98 <HAL_SPI_MspInit>
#endif /* USE_HAL_SPI_REGISTER_CALLBACKS */
  }

  hspi->State = HAL_SPI_STATE_BUSY;
 8001d74:	687b      	ldr	r3, [r7, #4]
 8001d76:	2202      	movs	r2, #2
 8001d78:	f883 2051 	strb.w	r2, [r3, #81]	; 0x51

  /* Disable the selected SPI peripheral */
  __HAL_SPI_DISABLE(hspi);
 8001d7c:	687b      	ldr	r3, [r7, #4]
 8001d7e:	681b      	ldr	r3, [r3, #0]
 8001d80:	681a      	ldr	r2, [r3, #0]
 8001d82:	687b      	ldr	r3, [r7, #4]
 8001d84:	681b      	ldr	r3, [r3, #0]
 8001d86:	f022 0240 	bic.w	r2, r2, #64	; 0x40
 8001d8a:	601a      	str	r2, [r3, #0]

  /*----------------------- SPIx CR1 & CR2 Configuration ---------------------*/
  /* Configure : SPI Mode, Communication Mode, Data size, Clock polarity and phase, NSS management,
  Communication speed, First bit and CRC calculation state */
  WRITE_REG(hspi->Instance->CR1, ((hspi->Init.Mode & (SPI_CR1_MSTR | SPI_CR1_SSI)) |
 8001d8c:	687b      	ldr	r3, [r7, #4]
 8001d8e:	685b      	ldr	r3, [r3, #4]
 8001d90:	f403 7282 	and.w	r2, r3, #260	; 0x104
 8001d94:	687b      	ldr	r3, [r7, #4]
 8001d96:	689b      	ldr	r3, [r3, #8]
 8001d98:	f403 4304 	and.w	r3, r3, #33792	; 0x8400
 8001d9c:	431a      	orrs	r2, r3
 8001d9e:	687b      	ldr	r3, [r7, #4]
 8001da0:	68db      	ldr	r3, [r3, #12]
 8001da2:	f403 6300 	and.w	r3, r3, #2048	; 0x800
 8001da6:	431a      	orrs	r2, r3
 8001da8:	687b      	ldr	r3, [r7, #4]
 8001daa:	691b      	ldr	r3, [r3, #16]
 8001dac:	f003 0302 	and.w	r3, r3, #2
 8001db0:	431a      	orrs	r2, r3
 8001db2:	687b      	ldr	r3, [r7, #4]
 8001db4:	695b      	ldr	r3, [r3, #20]
 8001db6:	f003 0301 	and.w	r3, r3, #1
 8001dba:	431a      	orrs	r2, r3
 8001dbc:	687b      	ldr	r3, [r7, #4]
 8001dbe:	699b      	ldr	r3, [r3, #24]
 8001dc0:	f403 7300 	and.w	r3, r3, #512	; 0x200
 8001dc4:	431a      	orrs	r2, r3
 8001dc6:	687b      	ldr	r3, [r7, #4]
 8001dc8:	69db      	ldr	r3, [r3, #28]
 8001dca:	f003 0338 	and.w	r3, r3, #56	; 0x38
 8001dce:	431a      	orrs	r2, r3
 8001dd0:	687b      	ldr	r3, [r7, #4]
 8001dd2:	6a1b      	ldr	r3, [r3, #32]
 8001dd4:	f003 0380 	and.w	r3, r3, #128	; 0x80
 8001dd8:	ea42 0103 	orr.w	r1, r2, r3
 8001ddc:	687b      	ldr	r3, [r7, #4]
 8001dde:	6a9b      	ldr	r3, [r3, #40]	; 0x28
 8001de0:	f403 5200 	and.w	r2, r3, #8192	; 0x2000
 8001de4:	687b      	ldr	r3, [r7, #4]
 8001de6:	681b      	ldr	r3, [r3, #0]
 8001de8:	430a      	orrs	r2, r1
 8001dea:	601a      	str	r2, [r3, #0]
                                  (hspi->Init.BaudRatePrescaler & SPI_CR1_BR_Msk) |
                                  (hspi->Init.FirstBit  & SPI_CR1_LSBFIRST) |
                                  (hspi->Init.CRCCalculation & SPI_CR1_CRCEN)));

  /* Configure : NSS management, TI Mode */
  WRITE_REG(hspi->Instance->CR2, (((hspi->Init.NSS >> 16U) & SPI_CR2_SSOE) | (hspi->Init.TIMode & SPI_CR2_FRF)));
 8001dec:	687b      	ldr	r3, [r7, #4]
 8001dee:	699b      	ldr	r3, [r3, #24]
 8001df0:	0c1b      	lsrs	r3, r3, #16
 8001df2:	f003 0104 	and.w	r1, r3, #4
 8001df6:	687b      	ldr	r3, [r7, #4]
 8001df8:	6a5b      	ldr	r3, [r3, #36]	; 0x24
 8001dfa:	f003 0210 	and.w	r2, r3, #16
 8001dfe:	687b      	ldr	r3, [r7, #4]
 8001e00:	681b      	ldr	r3, [r3, #0]
 8001e02:	430a      	orrs	r2, r1
 8001e04:	605a      	str	r2, [r3, #4]
  }
#endif /* USE_SPI_CRC */

#if defined(SPI_I2SCFGR_I2SMOD)
  /* Activate the SPI mode (Make sure that I2SMOD bit in I2SCFGR register is reset) */
  CLEAR_BIT(hspi->Instance->I2SCFGR, SPI_I2SCFGR_I2SMOD);
 8001e06:	687b      	ldr	r3, [r7, #4]
 8001e08:	681b      	ldr	r3, [r3, #0]
 8001e0a:	69da      	ldr	r2, [r3, #28]
 8001e0c:	687b      	ldr	r3, [r7, #4]
 8001e0e:	681b      	ldr	r3, [r3, #0]
 8001e10:	f422 6200 	bic.w	r2, r2, #2048	; 0x800
 8001e14:	61da      	str	r2, [r3, #28]
#endif /* SPI_I2SCFGR_I2SMOD */

  hspi->ErrorCode = HAL_SPI_ERROR_NONE;
 8001e16:	687b      	ldr	r3, [r7, #4]
 8001e18:	2200      	movs	r2, #0
 8001e1a:	655a      	str	r2, [r3, #84]	; 0x54
  hspi->State     = HAL_SPI_STATE_READY;
 8001e1c:	687b      	ldr	r3, [r7, #4]
 8001e1e:	2201      	movs	r2, #1
 8001e20:	f883 2051 	strb.w	r2, [r3, #81]	; 0x51

  return HAL_OK;
 8001e24:	2300      	movs	r3, #0
}
 8001e26:	4618      	mov	r0, r3
 8001e28:	3708      	adds	r7, #8
 8001e2a:	46bd      	mov	sp, r7
 8001e2c:	bd80      	pop	{r7, pc}

08001e2e <HAL_SPI_Transmit>:
  * @param  Size amount of data to be sent
  * @param  Timeout Timeout duration
  * @retval HAL status
  */
HAL_StatusTypeDef HAL_SPI_Transmit(SPI_HandleTypeDef *hspi, uint8_t *pData, uint16_t Size, uint32_t Timeout)
{
 8001e2e:	b580      	push	{r7, lr}
 8001e30:	b088      	sub	sp, #32
 8001e32:	af00      	add	r7, sp, #0
 8001e34:	60f8      	str	r0, [r7, #12]
 8001e36:	60b9      	str	r1, [r7, #8]
 8001e38:	603b      	str	r3, [r7, #0]
 8001e3a:	4613      	mov	r3, r2
 8001e3c:	80fb      	strh	r3, [r7, #6]
  uint32_t tickstart;
  HAL_StatusTypeDef errorcode = HAL_OK;
 8001e3e:	2300      	movs	r3, #0
 8001e40:	77fb      	strb	r3, [r7, #31]

  /* Check Direction parameter */
  assert_param(IS_SPI_DIRECTION_2LINES_OR_1LINE(hspi->Init.Direction));

  /* Process Locked */
  __HAL_LOCK(hspi);
 8001e42:	68fb      	ldr	r3, [r7, #12]
 8001e44:	f893 3050 	ldrb.w	r3, [r3, #80]	; 0x50
 8001e48:	2b01      	cmp	r3, #1
 8001e4a:	d101      	bne.n	8001e50 <HAL_SPI_Transmit+0x22>
 8001e4c:	2302      	movs	r3, #2
 8001e4e:	e126      	b.n	800209e <HAL_SPI_Transmit+0x270>
 8001e50:	68fb      	ldr	r3, [r7, #12]
 8001e52:	2201      	movs	r2, #1
 8001e54:	f883 2050 	strb.w	r2, [r3, #80]	; 0x50

  /* Init tickstart for timeout management*/
  tickstart = HAL_GetTick();
 8001e58:	f7fe ffb8 	bl	8000dcc <HAL_GetTick>
 8001e5c:	61b8      	str	r0, [r7, #24]
  initial_TxXferCount = Size;
 8001e5e:	88fb      	ldrh	r3, [r7, #6]
 8001e60:	82fb      	strh	r3, [r7, #22]

  if (hspi->State != HAL_SPI_STATE_READY)
 8001e62:	68fb      	ldr	r3, [r7, #12]
 8001e64:	f893 3051 	ldrb.w	r3, [r3, #81]	; 0x51
 8001e68:	b2db      	uxtb	r3, r3
 8001e6a:	2b01      	cmp	r3, #1
 8001e6c:	d002      	beq.n	8001e74 <HAL_SPI_Transmit+0x46>
  {
    errorcode = HAL_BUSY;
 8001e6e:	2302      	movs	r3, #2
 8001e70:	77fb      	strb	r3, [r7, #31]
    goto error;
 8001e72:	e10b      	b.n	800208c <HAL_SPI_Transmit+0x25e>
  }

  if ((pData == NULL) || (Size == 0U))
 8001e74:	68bb      	ldr	r3, [r7, #8]
 8001e76:	2b00      	cmp	r3, #0
 8001e78:	d002      	beq.n	8001e80 <HAL_SPI_Transmit+0x52>
 8001e7a:	88fb      	ldrh	r3, [r7, #6]
 8001e7c:	2b00      	cmp	r3, #0
 8001e7e:	d102      	bne.n	8001e86 <HAL_SPI_Transmit+0x58>
  {
    errorcode = HAL_ERROR;
 8001e80:	2301      	movs	r3, #1
 8001e82:	77fb      	strb	r3, [r7, #31]
    goto error;
 8001e84:	e102      	b.n	800208c <HAL_SPI_Transmit+0x25e>
  }

  /* Set the transaction information */
  hspi->State       = HAL_SPI_STATE_BUSY_TX;
 8001e86:	68fb      	ldr	r3, [r7, #12]
 8001e88:	2203      	movs	r2, #3
 8001e8a:	f883 2051 	strb.w	r2, [r3, #81]	; 0x51
  hspi->ErrorCode   = HAL_SPI_ERROR_NONE;
 8001e8e:	68fb      	ldr	r3, [r7, #12]
 8001e90:	2200      	movs	r2, #0
 8001e92:	655a      	str	r2, [r3, #84]	; 0x54
  hspi->pTxBuffPtr  = (uint8_t *)pData;
 8001e94:	68fb      	ldr	r3, [r7, #12]
 8001e96:	68ba      	ldr	r2, [r7, #8]
 8001e98:	631a      	str	r2, [r3, #48]	; 0x30
  hspi->TxXferSize  = Size;
 8001e9a:	68fb      	ldr	r3, [r7, #12]
 8001e9c:	88fa      	ldrh	r2, [r7, #6]
 8001e9e:	869a      	strh	r2, [r3, #52]	; 0x34
  hspi->TxXferCount = Size;
 8001ea0:	68fb      	ldr	r3, [r7, #12]
 8001ea2:	88fa      	ldrh	r2, [r7, #6]
 8001ea4:	86da      	strh	r2, [r3, #54]	; 0x36

  /*Init field not used in handle to zero */
  hspi->pRxBuffPtr  = (uint8_t *)NULL;
 8001ea6:	68fb      	ldr	r3, [r7, #12]
 8001ea8:	2200      	movs	r2, #0
 8001eaa:	639a      	str	r2, [r3, #56]	; 0x38
  hspi->RxXferSize  = 0U;
 8001eac:	68fb      	ldr	r3, [r7, #12]
 8001eae:	2200      	movs	r2, #0
 8001eb0:	879a      	strh	r2, [r3, #60]	; 0x3c
  hspi->RxXferCount = 0U;
 8001eb2:	68fb      	ldr	r3, [r7, #12]
 8001eb4:	2200      	movs	r2, #0
 8001eb6:	87da      	strh	r2, [r3, #62]	; 0x3e
  hspi->TxISR       = NULL;
 8001eb8:	68fb      	ldr	r3, [r7, #12]
 8001eba:	2200      	movs	r2, #0
 8001ebc:	645a      	str	r2, [r3, #68]	; 0x44
  hspi->RxISR       = NULL;
 8001ebe:	68fb      	ldr	r3, [r7, #12]
 8001ec0:	2200      	movs	r2, #0
 8001ec2:	641a      	str	r2, [r3, #64]	; 0x40

  /* Configure communication direction : 1Line */
  if (hspi->Init.Direction == SPI_DIRECTION_1LINE)
 8001ec4:	68fb      	ldr	r3, [r7, #12]
 8001ec6:	689b      	ldr	r3, [r3, #8]
 8001ec8:	f5b3 4f00 	cmp.w	r3, #32768	; 0x8000
 8001ecc:	d10f      	bne.n	8001eee <HAL_SPI_Transmit+0xc0>
  {
    /* Disable SPI Peripheral before set 1Line direction (BIDIOE bit) */
    __HAL_SPI_DISABLE(hspi);
 8001ece:	68fb      	ldr	r3, [r7, #12]
 8001ed0:	681b      	ldr	r3, [r3, #0]
 8001ed2:	681a      	ldr	r2, [r3, #0]
 8001ed4:	68fb      	ldr	r3, [r7, #12]
 8001ed6:	681b      	ldr	r3, [r3, #0]
 8001ed8:	f022 0240 	bic.w	r2, r2, #64	; 0x40
 8001edc:	601a      	str	r2, [r3, #0]
    SPI_1LINE_TX(hspi);
 8001ede:	68fb      	ldr	r3, [r7, #12]
 8001ee0:	681b      	ldr	r3, [r3, #0]
 8001ee2:	681a      	ldr	r2, [r3, #0]
 8001ee4:	68fb      	ldr	r3, [r7, #12]
 8001ee6:	681b      	ldr	r3, [r3, #0]
 8001ee8:	f442 4280 	orr.w	r2, r2, #16384	; 0x4000
 8001eec:	601a      	str	r2, [r3, #0]
    SPI_RESET_CRC(hspi);
  }
#endif /* USE_SPI_CRC */

  /* Check if the SPI is already enabled */
  if ((hspi->Instance->CR1 & SPI_CR1_SPE) != SPI_CR1_SPE)
 8001eee:	68fb      	ldr	r3, [r7, #12]
 8001ef0:	681b      	ldr	r3, [r3, #0]
 8001ef2:	681b      	ldr	r3, [r3, #0]
 8001ef4:	f003 0340 	and.w	r3, r3, #64	; 0x40
 8001ef8:	2b40      	cmp	r3, #64	; 0x40
 8001efa:	d007      	beq.n	8001f0c <HAL_SPI_Transmit+0xde>
  {
    /* Enable SPI peripheral */
    __HAL_SPI_ENABLE(hspi);
 8001efc:	68fb      	ldr	r3, [r7, #12]
 8001efe:	681b      	ldr	r3, [r3, #0]
 8001f00:	681a      	ldr	r2, [r3, #0]
 8001f02:	68fb      	ldr	r3, [r7, #12]
 8001f04:	681b      	ldr	r3, [r3, #0]
 8001f06:	f042 0240 	orr.w	r2, r2, #64	; 0x40
 8001f0a:	601a      	str	r2, [r3, #0]
  }

  /* Transmit data in 16 Bit mode */
  if (hspi->Init.DataSize == SPI_DATASIZE_16BIT)
 8001f0c:	68fb      	ldr	r3, [r7, #12]
 8001f0e:	68db      	ldr	r3, [r3, #12]
 8001f10:	f5b3 6f00 	cmp.w	r3, #2048	; 0x800
 8001f14:	d14b      	bne.n	8001fae <HAL_SPI_Transmit+0x180>
  {
    if ((hspi->Init.Mode == SPI_MODE_SLAVE) || (initial_TxXferCount == 0x01U))
 8001f16:	68fb      	ldr	r3, [r7, #12]
 8001f18:	685b      	ldr	r3, [r3, #4]
 8001f1a:	2b00      	cmp	r3, #0
 8001f1c:	d002      	beq.n	8001f24 <HAL_SPI_Transmit+0xf6>
 8001f1e:	8afb      	ldrh	r3, [r7, #22]
 8001f20:	2b01      	cmp	r3, #1
 8001f22:	d13e      	bne.n	8001fa2 <HAL_SPI_Transmit+0x174>
    {
      hspi->Instance->DR = *((uint16_t *)hspi->pTxBuffPtr);
 8001f24:	68fb      	ldr	r3, [r7, #12]
 8001f26:	6b1b      	ldr	r3, [r3, #48]	; 0x30
 8001f28:	881a      	ldrh	r2, [r3, #0]
 8001f2a:	68fb      	ldr	r3, [r7, #12]
 8001f2c:	681b      	ldr	r3, [r3, #0]
 8001f2e:	60da      	str	r2, [r3, #12]
      hspi->pTxBuffPtr += sizeof(uint16_t);
 8001f30:	68fb      	ldr	r3, [r7, #12]
 8001f32:	6b1b      	ldr	r3, [r3, #48]	; 0x30
 8001f34:	1c9a      	adds	r2, r3, #2
 8001f36:	68fb      	ldr	r3, [r7, #12]
 8001f38:	631a      	str	r2, [r3, #48]	; 0x30
      hspi->TxXferCount--;
 8001f3a:	68fb      	ldr	r3, [r7, #12]
 8001f3c:	8edb      	ldrh	r3, [r3, #54]	; 0x36
 8001f3e:	b29b      	uxth	r3, r3
 8001f40:	3b01      	subs	r3, #1
 8001f42:	b29a      	uxth	r2, r3
 8001f44:	68fb      	ldr	r3, [r7, #12]
 8001f46:	86da      	strh	r2, [r3, #54]	; 0x36
    }
    /* Transmit data in 16 Bit mode */
    while (hspi->TxXferCount > 0U)
 8001f48:	e02b      	b.n	8001fa2 <HAL_SPI_Transmit+0x174>
    {
      /* Wait until TXE flag is set to send data */
      if (__HAL_SPI_GET_FLAG(hspi, SPI_FLAG_TXE))
 8001f4a:	68fb      	ldr	r3, [r7, #12]
 8001f4c:	681b      	ldr	r3, [r3, #0]
 8001f4e:	689b      	ldr	r3, [r3, #8]
 8001f50:	f003 0302 	and.w	r3, r3, #2
 8001f54:	2b02      	cmp	r3, #2
 8001f56:	d112      	bne.n	8001f7e <HAL_SPI_Transmit+0x150>
      {
        hspi->Instance->DR = *((uint16_t *)hspi->pTxBuffPtr);
 8001f58:	68fb      	ldr	r3, [r7, #12]
 8001f5a:	6b1b      	ldr	r3, [r3, #48]	; 0x30
 8001f5c:	881a      	ldrh	r2, [r3, #0]
 8001f5e:	68fb      	ldr	r3, [r7, #12]
 8001f60:	681b      	ldr	r3, [r3, #0]
 8001f62:	60da      	str	r2, [r3, #12]
        hspi->pTxBuffPtr += sizeof(uint16_t);
 8001f64:	68fb      	ldr	r3, [r7, #12]
 8001f66:	6b1b      	ldr	r3, [r3, #48]	; 0x30
 8001f68:	1c9a      	adds	r2, r3, #2
 8001f6a:	68fb      	ldr	r3, [r7, #12]
 8001f6c:	631a      	str	r2, [r3, #48]	; 0x30
        hspi->TxXferCount--;
 8001f6e:	68fb      	ldr	r3, [r7, #12]
 8001f70:	8edb      	ldrh	r3, [r3, #54]	; 0x36
 8001f72:	b29b      	uxth	r3, r3
 8001f74:	3b01      	subs	r3, #1
 8001f76:	b29a      	uxth	r2, r3
 8001f78:	68fb      	ldr	r3, [r7, #12]
 8001f7a:	86da      	strh	r2, [r3, #54]	; 0x36
 8001f7c:	e011      	b.n	8001fa2 <HAL_SPI_Transmit+0x174>
      }
      else
      {
        /* Timeout management */
        if ((((HAL_GetTick() - tickstart) >=  Timeout) && (Timeout != HAL_MAX_DELAY)) || (Timeout == 0U))
 8001f7e:	f7fe ff25 	bl	8000dcc <HAL_GetTick>
 8001f82:	4602      	mov	r2, r0
 8001f84:	69bb      	ldr	r3, [r7, #24]
 8001f86:	1ad3      	subs	r3, r2, r3
 8001f88:	683a      	ldr	r2, [r7, #0]
 8001f8a:	429a      	cmp	r2, r3
 8001f8c:	d803      	bhi.n	8001f96 <HAL_SPI_Transmit+0x168>
 8001f8e:	683b      	ldr	r3, [r7, #0]
 8001f90:	f1b3 3fff 	cmp.w	r3, #4294967295	; 0xffffffff
 8001f94:	d102      	bne.n	8001f9c <HAL_SPI_Transmit+0x16e>
 8001f96:	683b      	ldr	r3, [r7, #0]
 8001f98:	2b00      	cmp	r3, #0
 8001f9a:	d102      	bne.n	8001fa2 <HAL_SPI_Transmit+0x174>
        {
          errorcode = HAL_TIMEOUT;
 8001f9c:	2303      	movs	r3, #3
 8001f9e:	77fb      	strb	r3, [r7, #31]
          goto error;
 8001fa0:	e074      	b.n	800208c <HAL_SPI_Transmit+0x25e>
    while (hspi->TxXferCount > 0U)
 8001fa2:	68fb      	ldr	r3, [r7, #12]
 8001fa4:	8edb      	ldrh	r3, [r3, #54]	; 0x36
 8001fa6:	b29b      	uxth	r3, r3
 8001fa8:	2b00      	cmp	r3, #0
 8001faa:	d1ce      	bne.n	8001f4a <HAL_SPI_Transmit+0x11c>
 8001fac:	e04c      	b.n	8002048 <HAL_SPI_Transmit+0x21a>
    }
  }
  /* Transmit data in 8 Bit mode */
  else
  {
    if ((hspi->Init.Mode == SPI_MODE_SLAVE) || (initial_TxXferCount == 0x01U))
 8001fae:	68fb      	ldr	r3, [r7, #12]
 8001fb0:	685b      	ldr	r3, [r3, #4]
 8001fb2:	2b00      	cmp	r3, #0
 8001fb4:	d002      	beq.n	8001fbc <HAL_SPI_Transmit+0x18e>
 8001fb6:	8afb      	ldrh	r3, [r7, #22]
 8001fb8:	2b01      	cmp	r3, #1
 8001fba:	d140      	bne.n	800203e <HAL_SPI_Transmit+0x210>
    {
      *((__IO uint8_t *)&hspi->Instance->DR) = (*hspi->pTxBuffPtr);
 8001fbc:	68fb      	ldr	r3, [r7, #12]
 8001fbe:	6b1a      	ldr	r2, [r3, #48]	; 0x30
 8001fc0:	68fb      	ldr	r3, [r7, #12]
 8001fc2:	681b      	ldr	r3, [r3, #0]
 8001fc4:	330c      	adds	r3, #12
 8001fc6:	7812      	ldrb	r2, [r2, #0]
 8001fc8:	701a      	strb	r2, [r3, #0]
      hspi->pTxBuffPtr += sizeof(uint8_t);
 8001fca:	68fb      	ldr	r3, [r7, #12]
 8001fcc:	6b1b      	ldr	r3, [r3, #48]	; 0x30
 8001fce:	1c5a      	adds	r2, r3, #1
 8001fd0:	68fb      	ldr	r3, [r7, #12]
 8001fd2:	631a      	str	r2, [r3, #48]	; 0x30
      hspi->TxXferCount--;
 8001fd4:	68fb      	ldr	r3, [r7, #12]
 8001fd6:	8edb      	ldrh	r3, [r3, #54]	; 0x36
 8001fd8:	b29b      	uxth	r3, r3
 8001fda:	3b01      	subs	r3, #1
 8001fdc:	b29a      	uxth	r2, r3
 8001fde:	68fb      	ldr	r3, [r7, #12]
 8001fe0:	86da      	strh	r2, [r3, #54]	; 0x36
    }
    while (hspi->TxXferCount > 0U)
 8001fe2:	e02c      	b.n	800203e <HAL_SPI_Transmit+0x210>
    {
      /* Wait until TXE flag is set to send data */
      if (__HAL_SPI_GET_FLAG(hspi, SPI_FLAG_TXE))
 8001fe4:	68fb      	ldr	r3, [r7, #12]
 8001fe6:	681b      	ldr	r3, [r3, #0]
 8001fe8:	689b      	ldr	r3, [r3, #8]
 8001fea:	f003 0302 	and.w	r3, r3, #2
 8001fee:	2b02      	cmp	r3, #2
 8001ff0:	d113      	bne.n	800201a <HAL_SPI_Transmit+0x1ec>
      {
        *((__IO uint8_t *)&hspi->Instance->DR) = (*hspi->pTxBuffPtr);
 8001ff2:	68fb      	ldr	r3, [r7, #12]
 8001ff4:	6b1a      	ldr	r2, [r3, #48]	; 0x30
 8001ff6:	68fb      	ldr	r3, [r7, #12]
 8001ff8:	681b      	ldr	r3, [r3, #0]
 8001ffa:	330c      	adds	r3, #12
 8001ffc:	7812      	ldrb	r2, [r2, #0]
 8001ffe:	701a      	strb	r2, [r3, #0]
        hspi->pTxBuffPtr += sizeof(uint8_t);
 8002000:	68fb      	ldr	r3, [r7, #12]
 8002002:	6b1b      	ldr	r3, [r3, #48]	; 0x30
 8002004:	1c5a      	adds	r2, r3, #1
 8002006:	68fb      	ldr	r3, [r7, #12]
 8002008:	631a      	str	r2, [r3, #48]	; 0x30
        hspi->TxXferCount--;
 800200a:	68fb      	ldr	r3, [r7, #12]
 800200c:	8edb      	ldrh	r3, [r3, #54]	; 0x36
 800200e:	b29b      	uxth	r3, r3
 8002010:	3b01      	subs	r3, #1
 8002012:	b29a      	uxth	r2, r3
 8002014:	68fb      	ldr	r3, [r7, #12]
 8002016:	86da      	strh	r2, [r3, #54]	; 0x36
 8002018:	e011      	b.n	800203e <HAL_SPI_Transmit+0x210>
      }
      else
      {
        /* Timeout management */
        if ((((HAL_GetTick() - tickstart) >=  Timeout) && (Timeout != HAL_MAX_DELAY)) || (Timeout == 0U))
 800201a:	f7fe fed7 	bl	8000dcc <HAL_GetTick>
 800201e:	4602      	mov	r2, r0
 8002020:	69bb      	ldr	r3, [r7, #24]
 8002022:	1ad3      	subs	r3, r2, r3
 8002024:	683a      	ldr	r2, [r7, #0]
 8002026:	429a      	cmp	r2, r3
 8002028:	d803      	bhi.n	8002032 <HAL_SPI_Transmit+0x204>
 800202a:	683b      	ldr	r3, [r7, #0]
 800202c:	f1b3 3fff 	cmp.w	r3, #4294967295	; 0xffffffff
 8002030:	d102      	bne.n	8002038 <HAL_SPI_Transmit+0x20a>
 8002032:	683b      	ldr	r3, [r7, #0]
 8002034:	2b00      	cmp	r3, #0
 8002036:	d102      	bne.n	800203e <HAL_SPI_Transmit+0x210>
        {
          errorcode = HAL_TIMEOUT;
 8002038:	2303      	movs	r3, #3
 800203a:	77fb      	strb	r3, [r7, #31]
          goto error;
 800203c:	e026      	b.n	800208c <HAL_SPI_Transmit+0x25e>
    while (hspi->TxXferCount > 0U)
 800203e:	68fb      	ldr	r3, [r7, #12]
 8002040:	8edb      	ldrh	r3, [r3, #54]	; 0x36
 8002042:	b29b      	uxth	r3, r3
 8002044:	2b00      	cmp	r3, #0
 8002046:	d1cd      	bne.n	8001fe4 <HAL_SPI_Transmit+0x1b6>
    SET_BIT(hspi->Instance->CR1, SPI_CR1_CRCNEXT);
  }
#endif /* USE_SPI_CRC */

  /* Check the end of the transaction */
  if (SPI_EndRxTxTransaction(hspi, Timeout, tickstart) != HAL_OK)
 8002048:	69ba      	ldr	r2, [r7, #24]
 800204a:	6839      	ldr	r1, [r7, #0]
 800204c:	68f8      	ldr	r0, [r7, #12]
 800204e:	f000 fbcb 	bl	80027e8 <SPI_EndRxTxTransaction>
 8002052:	4603      	mov	r3, r0
 8002054:	2b00      	cmp	r3, #0
 8002056:	d002      	beq.n	800205e <HAL_SPI_Transmit+0x230>
  {
    hspi->ErrorCode = HAL_SPI_ERROR_FLAG;
 8002058:	68fb      	ldr	r3, [r7, #12]
 800205a:	2220      	movs	r2, #32
 800205c:	655a      	str	r2, [r3, #84]	; 0x54
  }

  /* Clear overrun flag in 2 Lines communication mode because received is not read */
  if (hspi->Init.Direction == SPI_DIRECTION_2LINES)
 800205e:	68fb      	ldr	r3, [r7, #12]
 8002060:	689b      	ldr	r3, [r3, #8]
 8002062:	2b00      	cmp	r3, #0
 8002064:	d10a      	bne.n	800207c <HAL_SPI_Transmit+0x24e>
  {
    __HAL_SPI_CLEAR_OVRFLAG(hspi);
 8002066:	2300      	movs	r3, #0
 8002068:	613b      	str	r3, [r7, #16]
 800206a:	68fb      	ldr	r3, [r7, #12]
 800206c:	681b      	ldr	r3, [r3, #0]
 800206e:	68db      	ldr	r3, [r3, #12]
 8002070:	613b      	str	r3, [r7, #16]
 8002072:	68fb      	ldr	r3, [r7, #12]
 8002074:	681b      	ldr	r3, [r3, #0]
 8002076:	689b      	ldr	r3, [r3, #8]
 8002078:	613b      	str	r3, [r7, #16]
 800207a:	693b      	ldr	r3, [r7, #16]
  }

  if (hspi->ErrorCode != HAL_SPI_ERROR_NONE)
 800207c:	68fb      	ldr	r3, [r7, #12]
 800207e:	6d5b      	ldr	r3, [r3, #84]	; 0x54
 8002080:	2b00      	cmp	r3, #0
 8002082:	d002      	beq.n	800208a <HAL_SPI_Transmit+0x25c>
  {
    errorcode = HAL_ERROR;
 8002084:	2301      	movs	r3, #1
 8002086:	77fb      	strb	r3, [r7, #31]
 8002088:	e000      	b.n	800208c <HAL_SPI_Transmit+0x25e>
  }

error:
 800208a:	bf00      	nop
  hspi->State = HAL_SPI_STATE_READY;
 800208c:	68fb      	ldr	r3, [r7, #12]
 800208e:	2201      	movs	r2, #1
 8002090:	f883 2051 	strb.w	r2, [r3, #81]	; 0x51
  /* Process Unlocked */
  __HAL_UNLOCK(hspi);
 8002094:	68fb      	ldr	r3, [r7, #12]
 8002096:	2200      	movs	r2, #0
 8002098:	f883 2050 	strb.w	r2, [r3, #80]	; 0x50
  return errorcode;
 800209c:	7ffb      	ldrb	r3, [r7, #31]
}
 800209e:	4618      	mov	r0, r3
 80020a0:	3720      	adds	r7, #32
 80020a2:	46bd      	mov	sp, r7
 80020a4:	bd80      	pop	{r7, pc}

080020a6 <HAL_SPI_Receive>:
  * @param  Size amount of data to be received
  * @param  Timeout Timeout duration
  * @retval HAL status
  */
HAL_StatusTypeDef HAL_SPI_Receive(SPI_HandleTypeDef *hspi, uint8_t *pData, uint16_t Size, uint32_t Timeout)
{
 80020a6:	b580      	push	{r7, lr}
 80020a8:	b088      	sub	sp, #32
 80020aa:	af02      	add	r7, sp, #8
 80020ac:	60f8      	str	r0, [r7, #12]
 80020ae:	60b9      	str	r1, [r7, #8]
 80020b0:	603b      	str	r3, [r7, #0]
 80020b2:	4613      	mov	r3, r2
 80020b4:	80fb      	strh	r3, [r7, #6]
#if (USE_SPI_CRC != 0U)
  __IO uint32_t tmpreg = 0U;
#endif /* USE_SPI_CRC */
  uint32_t tickstart;
  HAL_StatusTypeDef errorcode = HAL_OK;
 80020b6:	2300      	movs	r3, #0
 80020b8:	75fb      	strb	r3, [r7, #23]

  if ((hspi->Init.Mode == SPI_MODE_MASTER) && (hspi->Init.Direction == SPI_DIRECTION_2LINES))
 80020ba:	68fb      	ldr	r3, [r7, #12]
 80020bc:	685b      	ldr	r3, [r3, #4]
 80020be:	f5b3 7f82 	cmp.w	r3, #260	; 0x104
 80020c2:	d112      	bne.n	80020ea <HAL_SPI_Receive+0x44>
 80020c4:	68fb      	ldr	r3, [r7, #12]
 80020c6:	689b      	ldr	r3, [r3, #8]
 80020c8:	2b00      	cmp	r3, #0
 80020ca:	d10e      	bne.n	80020ea <HAL_SPI_Receive+0x44>
  {
    hspi->State = HAL_SPI_STATE_BUSY_RX;
 80020cc:	68fb      	ldr	r3, [r7, #12]
 80020ce:	2204      	movs	r2, #4
 80020d0:	f883 2051 	strb.w	r2, [r3, #81]	; 0x51
    /* Call transmit-receive function to send Dummy data on Tx line and generate clock on CLK line */
    return HAL_SPI_TransmitReceive(hspi, pData, pData, Size, Timeout);
 80020d4:	88fa      	ldrh	r2, [r7, #6]
 80020d6:	683b      	ldr	r3, [r7, #0]
 80020d8:	9300      	str	r3, [sp, #0]
 80020da:	4613      	mov	r3, r2
 80020dc:	68ba      	ldr	r2, [r7, #8]
 80020de:	68b9      	ldr	r1, [r7, #8]
 80020e0:	68f8      	ldr	r0, [r7, #12]
 80020e2:	f000 f8f1 	bl	80022c8 <HAL_SPI_TransmitReceive>
 80020e6:	4603      	mov	r3, r0
 80020e8:	e0ea      	b.n	80022c0 <HAL_SPI_Receive+0x21a>
  }

  /* Process Locked */
  __HAL_LOCK(hspi);
 80020ea:	68fb      	ldr	r3, [r7, #12]
 80020ec:	f893 3050 	ldrb.w	r3, [r3, #80]	; 0x50
 80020f0:	2b01      	cmp	r3, #1
 80020f2:	d101      	bne.n	80020f8 <HAL_SPI_Receive+0x52>
 80020f4:	2302      	movs	r3, #2
 80020f6:	e0e3      	b.n	80022c0 <HAL_SPI_Receive+0x21a>
 80020f8:	68fb      	ldr	r3, [r7, #12]
 80020fa:	2201      	movs	r2, #1
 80020fc:	f883 2050 	strb.w	r2, [r3, #80]	; 0x50

  /* Init tickstart for timeout management*/
  tickstart = HAL_GetTick();
 8002100:	f7fe fe64 	bl	8000dcc <HAL_GetTick>
 8002104:	6138      	str	r0, [r7, #16]

  if (hspi->State != HAL_SPI_STATE_READY)
 8002106:	68fb      	ldr	r3, [r7, #12]
 8002108:	f893 3051 	ldrb.w	r3, [r3, #81]	; 0x51
 800210c:	b2db      	uxtb	r3, r3
 800210e:	2b01      	cmp	r3, #1
 8002110:	d002      	beq.n	8002118 <HAL_SPI_Receive+0x72>
  {
    errorcode = HAL_BUSY;
 8002112:	2302      	movs	r3, #2
 8002114:	75fb      	strb	r3, [r7, #23]
    goto error;
 8002116:	e0ca      	b.n	80022ae <HAL_SPI_Receive+0x208>
  }

  if ((pData == NULL) || (Size == 0U))
 8002118:	68bb      	ldr	r3, [r7, #8]
 800211a:	2b00      	cmp	r3, #0
 800211c:	d002      	beq.n	8002124 <HAL_SPI_Receive+0x7e>
 800211e:	88fb      	ldrh	r3, [r7, #6]
 8002120:	2b00      	cmp	r3, #0
 8002122:	d102      	bne.n	800212a <HAL_SPI_Receive+0x84>
  {
    errorcode = HAL_ERROR;
 8002124:	2301      	movs	r3, #1
 8002126:	75fb      	strb	r3, [r7, #23]
    goto error;
 8002128:	e0c1      	b.n	80022ae <HAL_SPI_Receive+0x208>
  }

  /* Set the transaction information */
  hspi->State       = HAL_SPI_STATE_BUSY_RX;
 800212a:	68fb      	ldr	r3, [r7, #12]
 800212c:	2204      	movs	r2, #4
 800212e:	f883 2051 	strb.w	r2, [r3, #81]	; 0x51
  hspi->ErrorCode   = HAL_SPI_ERROR_NONE;
 8002132:	68fb      	ldr	r3, [r7, #12]
 8002134:	2200      	movs	r2, #0
 8002136:	655a      	str	r2, [r3, #84]	; 0x54
  hspi->pRxBuffPtr  = (uint8_t *)pData;
 8002138:	68fb      	ldr	r3, [r7, #12]
 800213a:	68ba      	ldr	r2, [r7, #8]
 800213c:	639a      	str	r2, [r3, #56]	; 0x38
  hspi->RxXferSize  = Size;
 800213e:	68fb      	ldr	r3, [r7, #12]
 8002140:	88fa      	ldrh	r2, [r7, #6]
 8002142:	879a      	strh	r2, [r3, #60]	; 0x3c
  hspi->RxXferCount = Size;
 8002144:	68fb      	ldr	r3, [r7, #12]
 8002146:	88fa      	ldrh	r2, [r7, #6]
 8002148:	87da      	strh	r2, [r3, #62]	; 0x3e

  /*Init field not used in handle to zero */
  hspi->pTxBuffPtr  = (uint8_t *)NULL;
 800214a:	68fb      	ldr	r3, [r7, #12]
 800214c:	2200      	movs	r2, #0
 800214e:	631a      	str	r2, [r3, #48]	; 0x30
  hspi->TxXferSize  = 0U;
 8002150:	68fb      	ldr	r3, [r7, #12]
 8002152:	2200      	movs	r2, #0
 8002154:	869a      	strh	r2, [r3, #52]	; 0x34
  hspi->TxXferCount = 0U;
 8002156:	68fb      	ldr	r3, [r7, #12]
 8002158:	2200      	movs	r2, #0
 800215a:	86da      	strh	r2, [r3, #54]	; 0x36
  hspi->RxISR       = NULL;
 800215c:	68fb      	ldr	r3, [r7, #12]
 800215e:	2200      	movs	r2, #0
 8002160:	641a      	str	r2, [r3, #64]	; 0x40
  hspi->TxISR       = NULL;
 8002162:	68fb      	ldr	r3, [r7, #12]
 8002164:	2200      	movs	r2, #0
 8002166:	645a      	str	r2, [r3, #68]	; 0x44
    hspi->RxXferCount--;
  }
#endif /* USE_SPI_CRC */

  /* Configure communication direction: 1Line */
  if (hspi->Init.Direction == SPI_DIRECTION_1LINE)
 8002168:	68fb      	ldr	r3, [r7, #12]
 800216a:	689b      	ldr	r3, [r3, #8]
 800216c:	f5b3 4f00 	cmp.w	r3, #32768	; 0x8000
 8002170:	d10f      	bne.n	8002192 <HAL_SPI_Receive+0xec>
  {
    /* Disable SPI Peripheral before set 1Line direction (BIDIOE bit) */
    __HAL_SPI_DISABLE(hspi);
 8002172:	68fb      	ldr	r3, [r7, #12]
 8002174:	681b      	ldr	r3, [r3, #0]
 8002176:	681a      	ldr	r2, [r3, #0]
 8002178:	68fb      	ldr	r3, [r7, #12]
 800217a:	681b      	ldr	r3, [r3, #0]
 800217c:	f022 0240 	bic.w	r2, r2, #64	; 0x40
 8002180:	601a      	str	r2, [r3, #0]
    SPI_1LINE_RX(hspi);
 8002182:	68fb      	ldr	r3, [r7, #12]
 8002184:	681b      	ldr	r3, [r3, #0]
 8002186:	681a      	ldr	r2, [r3, #0]
 8002188:	68fb      	ldr	r3, [r7, #12]
 800218a:	681b      	ldr	r3, [r3, #0]
 800218c:	f422 4280 	bic.w	r2, r2, #16384	; 0x4000
 8002190:	601a      	str	r2, [r3, #0]
  }

  /* Check if the SPI is already enabled */
  if ((hspi->Instance->CR1 & SPI_CR1_SPE) != SPI_CR1_SPE)
 8002192:	68fb      	ldr	r3, [r7, #12]
 8002194:	681b      	ldr	r3, [r3, #0]
 8002196:	681b      	ldr	r3, [r3, #0]
 8002198:	f003 0340 	and.w	r3, r3, #64	; 0x40
 800219c:	2b40      	cmp	r3, #64	; 0x40
 800219e:	d007      	beq.n	80021b0 <HAL_SPI_Receive+0x10a>
  {
    /* Enable SPI peripheral */
    __HAL_SPI_ENABLE(hspi);
 80021a0:	68fb      	ldr	r3, [r7, #12]
 80021a2:	681b      	ldr	r3, [r3, #0]
 80021a4:	681a      	ldr	r2, [r3, #0]
 80021a6:	68fb      	ldr	r3, [r7, #12]
 80021a8:	681b      	ldr	r3, [r3, #0]
 80021aa:	f042 0240 	orr.w	r2, r2, #64	; 0x40
 80021ae:	601a      	str	r2, [r3, #0]
  }

  /* Receive data in 8 Bit mode */
  if (hspi->Init.DataSize == SPI_DATASIZE_8BIT)
 80021b0:	68fb      	ldr	r3, [r7, #12]
 80021b2:	68db      	ldr	r3, [r3, #12]
 80021b4:	2b00      	cmp	r3, #0
 80021b6:	d162      	bne.n	800227e <HAL_SPI_Receive+0x1d8>
  {
    /* Transfer loop */
    while (hspi->RxXferCount > 0U)
 80021b8:	e02e      	b.n	8002218 <HAL_SPI_Receive+0x172>
    {
      /* Check the RXNE flag */
      if (__HAL_SPI_GET_FLAG(hspi, SPI_FLAG_RXNE))
 80021ba:	68fb      	ldr	r3, [r7, #12]
 80021bc:	681b      	ldr	r3, [r3, #0]
 80021be:	689b      	ldr	r3, [r3, #8]
 80021c0:	f003 0301 	and.w	r3, r3, #1
 80021c4:	2b01      	cmp	r3, #1
 80021c6:	d115      	bne.n	80021f4 <HAL_SPI_Receive+0x14e>
      {
        /* read the received data */
        (* (uint8_t *)hspi->pRxBuffPtr) = *(__IO uint8_t *)&hspi->Instance->DR;
 80021c8:	68fb      	ldr	r3, [r7, #12]
 80021ca:	681b      	ldr	r3, [r3, #0]
 80021cc:	f103 020c 	add.w	r2, r3, #12
 80021d0:	68fb      	ldr	r3, [r7, #12]
 80021d2:	6b9b      	ldr	r3, [r3, #56]	; 0x38
 80021d4:	7812      	ldrb	r2, [r2, #0]
 80021d6:	b2d2      	uxtb	r2, r2
 80021d8:	701a      	strb	r2, [r3, #0]
        hspi->pRxBuffPtr += sizeof(uint8_t);
 80021da:	68fb      	ldr	r3, [r7, #12]
 80021dc:	6b9b      	ldr	r3, [r3, #56]	; 0x38
 80021de:	1c5a      	adds	r2, r3, #1
 80021e0:	68fb      	ldr	r3, [r7, #12]
 80021e2:	639a      	str	r2, [r3, #56]	; 0x38
        hspi->RxXferCount--;
 80021e4:	68fb      	ldr	r3, [r7, #12]
 80021e6:	8fdb      	ldrh	r3, [r3, #62]	; 0x3e
 80021e8:	b29b      	uxth	r3, r3
 80021ea:	3b01      	subs	r3, #1
 80021ec:	b29a      	uxth	r2, r3
 80021ee:	68fb      	ldr	r3, [r7, #12]
 80021f0:	87da      	strh	r2, [r3, #62]	; 0x3e
 80021f2:	e011      	b.n	8002218 <HAL_SPI_Receive+0x172>
      }
      else
      {
        /* Timeout management */
        if ((((HAL_GetTick() - tickstart) >=  Timeout) && (Timeout != HAL_MAX_DELAY)) || (Timeout == 0U))
 80021f4:	f7fe fdea 	bl	8000dcc <HAL_GetTick>
 80021f8:	4602      	mov	r2, r0
 80021fa:	693b      	ldr	r3, [r7, #16]
 80021fc:	1ad3      	subs	r3, r2, r3
 80021fe:	683a      	ldr	r2, [r7, #0]
 8002200:	429a      	cmp	r2, r3
 8002202:	d803      	bhi.n	800220c <HAL_SPI_Receive+0x166>
 8002204:	683b      	ldr	r3, [r7, #0]
 8002206:	f1b3 3fff 	cmp.w	r3, #4294967295	; 0xffffffff
 800220a:	d102      	bne.n	8002212 <HAL_SPI_Receive+0x16c>
 800220c:	683b      	ldr	r3, [r7, #0]
 800220e:	2b00      	cmp	r3, #0
 8002210:	d102      	bne.n	8002218 <HAL_SPI_Receive+0x172>
        {
          errorcode = HAL_TIMEOUT;
 8002212:	2303      	movs	r3, #3
 8002214:	75fb      	strb	r3, [r7, #23]
          goto error;
 8002216:	e04a      	b.n	80022ae <HAL_SPI_Receive+0x208>
    while (hspi->RxXferCount > 0U)
 8002218:	68fb      	ldr	r3, [r7, #12]
 800221a:	8fdb      	ldrh	r3, [r3, #62]	; 0x3e
 800221c:	b29b      	uxth	r3, r3
 800221e:	2b00      	cmp	r3, #0
 8002220:	d1cb      	bne.n	80021ba <HAL_SPI_Receive+0x114>
 8002222:	e031      	b.n	8002288 <HAL_SPI_Receive+0x1e2>
  {
    /* Transfer loop */
    while (hspi->RxXferCount > 0U)
    {
      /* Check the RXNE flag */
      if (__HAL_SPI_GET_FLAG(hspi, SPI_FLAG_RXNE))
 8002224:	68fb      	ldr	r3, [r7, #12]
 8002226:	681b      	ldr	r3, [r3, #0]
 8002228:	689b      	ldr	r3, [r3, #8]
 800222a:	f003 0301 	and.w	r3, r3, #1
 800222e:	2b01      	cmp	r3, #1
 8002230:	d113      	bne.n	800225a <HAL_SPI_Receive+0x1b4>
      {
        *((uint16_t *)hspi->pRxBuffPtr) = (uint16_t)hspi->Instance->DR;
 8002232:	68fb      	ldr	r3, [r7, #12]
 8002234:	681b      	ldr	r3, [r3, #0]
 8002236:	68da      	ldr	r2, [r3, #12]
 8002238:	68fb      	ldr	r3, [r7, #12]
 800223a:	6b9b      	ldr	r3, [r3, #56]	; 0x38
 800223c:	b292      	uxth	r2, r2
 800223e:	801a      	strh	r2, [r3, #0]
        hspi->pRxBuffPtr += sizeof(uint16_t);
 8002240:	68fb      	ldr	r3, [r7, #12]
 8002242:	6b9b      	ldr	r3, [r3, #56]	; 0x38
 8002244:	1c9a      	adds	r2, r3, #2
 8002246:	68fb      	ldr	r3, [r7, #12]
 8002248:	639a      	str	r2, [r3, #56]	; 0x38
        hspi->RxXferCount--;
 800224a:	68fb      	ldr	r3, [r7, #12]
 800224c:	8fdb      	ldrh	r3, [r3, #62]	; 0x3e
 800224e:	b29b      	uxth	r3, r3
 8002250:	3b01      	subs	r3, #1
 8002252:	b29a      	uxth	r2, r3
 8002254:	68fb      	ldr	r3, [r7, #12]
 8002256:	87da      	strh	r2, [r3, #62]	; 0x3e
 8002258:	e011      	b.n	800227e <HAL_SPI_Receive+0x1d8>
      }
      else
      {
        /* Timeout management */
        if ((((HAL_GetTick() - tickstart) >=  Timeout) && (Timeout != HAL_MAX_DELAY)) || (Timeout == 0U))
 800225a:	f7fe fdb7 	bl	8000dcc <HAL_GetTick>
 800225e:	4602      	mov	r2, r0
 8002260:	693b      	ldr	r3, [r7, #16]
 8002262:	1ad3      	subs	r3, r2, r3
 8002264:	683a      	ldr	r2, [r7, #0]
 8002266:	429a      	cmp	r2, r3
 8002268:	d803      	bhi.n	8002272 <HAL_SPI_Receive+0x1cc>
 800226a:	683b      	ldr	r3, [r7, #0]
 800226c:	f1b3 3fff 	cmp.w	r3, #4294967295	; 0xffffffff
 8002270:	d102      	bne.n	8002278 <HAL_SPI_Receive+0x1d2>
 8002272:	683b      	ldr	r3, [r7, #0]
 8002274:	2b00      	cmp	r3, #0
 8002276:	d102      	bne.n	800227e <HAL_SPI_Receive+0x1d8>
        {
          errorcode = HAL_TIMEOUT;
 8002278:	2303      	movs	r3, #3
 800227a:	75fb      	strb	r3, [r7, #23]
          goto error;
 800227c:	e017      	b.n	80022ae <HAL_SPI_Receive+0x208>
    while (hspi->RxXferCount > 0U)
 800227e:	68fb      	ldr	r3, [r7, #12]
 8002280:	8fdb      	ldrh	r3, [r3, #62]	; 0x3e
 8002282:	b29b      	uxth	r3, r3
 8002284:	2b00      	cmp	r3, #0
 8002286:	d1cd      	bne.n	8002224 <HAL_SPI_Receive+0x17e>
    UNUSED(tmpreg);
  }
#endif /* USE_SPI_CRC */

  /* Check the end of the transaction */
  if (SPI_EndRxTransaction(hspi, Timeout, tickstart) != HAL_OK)
 8002288:	693a      	ldr	r2, [r7, #16]
 800228a:	6839      	ldr	r1, [r7, #0]
 800228c:	68f8      	ldr	r0, [r7, #12]
 800228e:	f000 fa45 	bl	800271c <SPI_EndRxTransaction>
 8002292:	4603      	mov	r3, r0
 8002294:	2b00      	cmp	r3, #0
 8002296:	d002      	beq.n	800229e <HAL_SPI_Receive+0x1f8>
  {
    hspi->ErrorCode = HAL_SPI_ERROR_FLAG;
 8002298:	68fb      	ldr	r3, [r7, #12]
 800229a:	2220      	movs	r2, #32
 800229c:	655a      	str	r2, [r3, #84]	; 0x54
    SET_BIT(hspi->ErrorCode, HAL_SPI_ERROR_CRC);
    __HAL_SPI_CLEAR_CRCERRFLAG(hspi);
  }
#endif /* USE_SPI_CRC */

  if (hspi->ErrorCode != HAL_SPI_ERROR_NONE)
 800229e:	68fb      	ldr	r3, [r7, #12]
 80022a0:	6d5b      	ldr	r3, [r3, #84]	; 0x54
 80022a2:	2b00      	cmp	r3, #0
 80022a4:	d002      	beq.n	80022ac <HAL_SPI_Receive+0x206>
  {
    errorcode = HAL_ERROR;
 80022a6:	2301      	movs	r3, #1
 80022a8:	75fb      	strb	r3, [r7, #23]
 80022aa:	e000      	b.n	80022ae <HAL_SPI_Receive+0x208>
  }

error :
 80022ac:	bf00      	nop
  hspi->State = HAL_SPI_STATE_READY;
 80022ae:	68fb      	ldr	r3, [r7, #12]
 80022b0:	2201      	movs	r2, #1
 80022b2:	f883 2051 	strb.w	r2, [r3, #81]	; 0x51
  __HAL_UNLOCK(hspi);
 80022b6:	68fb      	ldr	r3, [r7, #12]
 80022b8:	2200      	movs	r2, #0
 80022ba:	f883 2050 	strb.w	r2, [r3, #80]	; 0x50
  return errorcode;
 80022be:	7dfb      	ldrb	r3, [r7, #23]
}
 80022c0:	4618      	mov	r0, r3
 80022c2:	3718      	adds	r7, #24
 80022c4:	46bd      	mov	sp, r7
 80022c6:	bd80      	pop	{r7, pc}

080022c8 <HAL_SPI_TransmitReceive>:
  * @param  Timeout Timeout duration
  * @retval HAL status
  */
HAL_StatusTypeDef HAL_SPI_TransmitReceive(SPI_HandleTypeDef *hspi, uint8_t *pTxData, uint8_t *pRxData, uint16_t Size,
                                          uint32_t Timeout)
{
 80022c8:	b580      	push	{r7, lr}
 80022ca:	b08c      	sub	sp, #48	; 0x30
 80022cc:	af00      	add	r7, sp, #0
 80022ce:	60f8      	str	r0, [r7, #12]
 80022d0:	60b9      	str	r1, [r7, #8]
 80022d2:	607a      	str	r2, [r7, #4]
 80022d4:	807b      	strh	r3, [r7, #2]
#if (USE_SPI_CRC != 0U)
  __IO uint32_t tmpreg = 0U;
#endif /* USE_SPI_CRC */

  /* Variable used to alternate Rx and Tx during transfer */
  uint32_t             txallowed = 1U;
 80022d6:	2301      	movs	r3, #1
 80022d8:	62fb      	str	r3, [r7, #44]	; 0x2c
  HAL_StatusTypeDef    errorcode = HAL_OK;
 80022da:	2300      	movs	r3, #0
 80022dc:	f887 302b 	strb.w	r3, [r7, #43]	; 0x2b

  /* Check Direction parameter */
  assert_param(IS_SPI_DIRECTION_2LINES(hspi->Init.Direction));

  /* Process Locked */
  __HAL_LOCK(hspi);
 80022e0:	68fb      	ldr	r3, [r7, #12]
 80022e2:	f893 3050 	ldrb.w	r3, [r3, #80]	; 0x50
 80022e6:	2b01      	cmp	r3, #1
 80022e8:	d101      	bne.n	80022ee <HAL_SPI_TransmitReceive+0x26>
 80022ea:	2302      	movs	r3, #2
 80022ec:	e18a      	b.n	8002604 <HAL_SPI_TransmitReceive+0x33c>
 80022ee:	68fb      	ldr	r3, [r7, #12]
 80022f0:	2201      	movs	r2, #1
 80022f2:	f883 2050 	strb.w	r2, [r3, #80]	; 0x50

  /* Init tickstart for timeout management*/
  tickstart = HAL_GetTick();
 80022f6:	f7fe fd69 	bl	8000dcc <HAL_GetTick>
 80022fa:	6278      	str	r0, [r7, #36]	; 0x24

  /* Init temporary variables */
  tmp_state           = hspi->State;
 80022fc:	68fb      	ldr	r3, [r7, #12]
 80022fe:	f893 3051 	ldrb.w	r3, [r3, #81]	; 0x51
 8002302:	f887 3023 	strb.w	r3, [r7, #35]	; 0x23
  tmp_mode            = hspi->Init.Mode;
 8002306:	68fb      	ldr	r3, [r7, #12]
 8002308:	685b      	ldr	r3, [r3, #4]
 800230a:	61fb      	str	r3, [r7, #28]
  initial_TxXferCount = Size;
 800230c:	887b      	ldrh	r3, [r7, #2]
 800230e:	837b      	strh	r3, [r7, #26]

  if (!((tmp_state == HAL_SPI_STATE_READY) || \
 8002310:	f897 3023 	ldrb.w	r3, [r7, #35]	; 0x23
 8002314:	2b01      	cmp	r3, #1
 8002316:	d00f      	beq.n	8002338 <HAL_SPI_TransmitReceive+0x70>
 8002318:	69fb      	ldr	r3, [r7, #28]
 800231a:	f5b3 7f82 	cmp.w	r3, #260	; 0x104
 800231e:	d107      	bne.n	8002330 <HAL_SPI_TransmitReceive+0x68>
        ((tmp_mode == SPI_MODE_MASTER) && (hspi->Init.Direction == SPI_DIRECTION_2LINES) && (tmp_state == HAL_SPI_STATE_BUSY_RX))))
 8002320:	68fb      	ldr	r3, [r7, #12]
 8002322:	689b      	ldr	r3, [r3, #8]
 8002324:	2b00      	cmp	r3, #0
 8002326:	d103      	bne.n	8002330 <HAL_SPI_TransmitReceive+0x68>
 8002328:	f897 3023 	ldrb.w	r3, [r7, #35]	; 0x23
 800232c:	2b04      	cmp	r3, #4
 800232e:	d003      	beq.n	8002338 <HAL_SPI_TransmitReceive+0x70>
  {
    errorcode = HAL_BUSY;
 8002330:	2302      	movs	r3, #2
 8002332:	f887 302b 	strb.w	r3, [r7, #43]	; 0x2b
    goto error;
 8002336:	e15b      	b.n	80025f0 <HAL_SPI_TransmitReceive+0x328>
  }

  if ((pTxData == NULL) || (pRxData == NULL) || (Size == 0U))
 8002338:	68bb      	ldr	r3, [r7, #8]
 800233a:	2b00      	cmp	r3, #0
 800233c:	d005      	beq.n	800234a <HAL_SPI_TransmitReceive+0x82>
 800233e:	687b      	ldr	r3, [r7, #4]
 8002340:	2b00      	cmp	r3, #0
 8002342:	d002      	beq.n	800234a <HAL_SPI_TransmitReceive+0x82>
 8002344:	887b      	ldrh	r3, [r7, #2]
 8002346:	2b00      	cmp	r3, #0
 8002348:	d103      	bne.n	8002352 <HAL_SPI_TransmitReceive+0x8a>
  {
    errorcode = HAL_ERROR;
 800234a:	2301      	movs	r3, #1
 800234c:	f887 302b 	strb.w	r3, [r7, #43]	; 0x2b
    goto error;
 8002350:	e14e      	b.n	80025f0 <HAL_SPI_TransmitReceive+0x328>
  }

  /* Don't overwrite in case of HAL_SPI_STATE_BUSY_RX */
  if (hspi->State != HAL_SPI_STATE_BUSY_RX)
 8002352:	68fb      	ldr	r3, [r7, #12]
 8002354:	f893 3051 	ldrb.w	r3, [r3, #81]	; 0x51
 8002358:	b2db      	uxtb	r3, r3
 800235a:	2b04      	cmp	r3, #4
 800235c:	d003      	beq.n	8002366 <HAL_SPI_TransmitReceive+0x9e>
  {
    hspi->State = HAL_SPI_STATE_BUSY_TX_RX;
 800235e:	68fb      	ldr	r3, [r7, #12]
 8002360:	2205      	movs	r2, #5
 8002362:	f883 2051 	strb.w	r2, [r3, #81]	; 0x51
  }

  /* Set the transaction information */
  hspi->ErrorCode   = HAL_SPI_ERROR_NONE;
 8002366:	68fb      	ldr	r3, [r7, #12]
 8002368:	2200      	movs	r2, #0
 800236a:	655a      	str	r2, [r3, #84]	; 0x54
  hspi->pRxBuffPtr  = (uint8_t *)pRxData;
 800236c:	68fb      	ldr	r3, [r7, #12]
 800236e:	687a      	ldr	r2, [r7, #4]
 8002370:	639a      	str	r2, [r3, #56]	; 0x38
  hspi->RxXferCount = Size;
 8002372:	68fb      	ldr	r3, [r7, #12]
 8002374:	887a      	ldrh	r2, [r7, #2]
 8002376:	87da      	strh	r2, [r3, #62]	; 0x3e
  hspi->RxXferSize  = Size;
 8002378:	68fb      	ldr	r3, [r7, #12]
 800237a:	887a      	ldrh	r2, [r7, #2]
 800237c:	879a      	strh	r2, [r3, #60]	; 0x3c
  hspi->pTxBuffPtr  = (uint8_t *)pTxData;
 800237e:	68fb      	ldr	r3, [r7, #12]
 8002380:	68ba      	ldr	r2, [r7, #8]
 8002382:	631a      	str	r2, [r3, #48]	; 0x30
  hspi->TxXferCount = Size;
 8002384:	68fb      	ldr	r3, [r7, #12]
 8002386:	887a      	ldrh	r2, [r7, #2]
 8002388:	86da      	strh	r2, [r3, #54]	; 0x36
  hspi->TxXferSize  = Size;
 800238a:	68fb      	ldr	r3, [r7, #12]
 800238c:	887a      	ldrh	r2, [r7, #2]
 800238e:	869a      	strh	r2, [r3, #52]	; 0x34

  /*Init field not used in handle to zero */
  hspi->RxISR       = NULL;
 8002390:	68fb      	ldr	r3, [r7, #12]
 8002392:	2200      	movs	r2, #0
 8002394:	641a      	str	r2, [r3, #64]	; 0x40
  hspi->TxISR       = NULL;
 8002396:	68fb      	ldr	r3, [r7, #12]
 8002398:	2200      	movs	r2, #0
 800239a:	645a      	str	r2, [r3, #68]	; 0x44
    SPI_RESET_CRC(hspi);
  }
#endif /* USE_SPI_CRC */

  /* Check if the SPI is already enabled */
  if ((hspi->Instance->CR1 & SPI_CR1_SPE) != SPI_CR1_SPE)
 800239c:	68fb      	ldr	r3, [r7, #12]
 800239e:	681b      	ldr	r3, [r3, #0]
 80023a0:	681b      	ldr	r3, [r3, #0]
 80023a2:	f003 0340 	and.w	r3, r3, #64	; 0x40
 80023a6:	2b40      	cmp	r3, #64	; 0x40
 80023a8:	d007      	beq.n	80023ba <HAL_SPI_TransmitReceive+0xf2>
  {
    /* Enable SPI peripheral */
    __HAL_SPI_ENABLE(hspi);
 80023aa:	68fb      	ldr	r3, [r7, #12]
 80023ac:	681b      	ldr	r3, [r3, #0]
 80023ae:	681a      	ldr	r2, [r3, #0]
 80023b0:	68fb      	ldr	r3, [r7, #12]
 80023b2:	681b      	ldr	r3, [r3, #0]
 80023b4:	f042 0240 	orr.w	r2, r2, #64	; 0x40
 80023b8:	601a      	str	r2, [r3, #0]
  }

  /* Transmit and Receive data in 16 Bit mode */
  if (hspi->Init.DataSize == SPI_DATASIZE_16BIT)
 80023ba:	68fb      	ldr	r3, [r7, #12]
 80023bc:	68db      	ldr	r3, [r3, #12]
 80023be:	f5b3 6f00 	cmp.w	r3, #2048	; 0x800
 80023c2:	d178      	bne.n	80024b6 <HAL_SPI_TransmitReceive+0x1ee>
  {
    if ((hspi->Init.Mode == SPI_MODE_SLAVE) || (initial_TxXferCount == 0x01U))
 80023c4:	68fb      	ldr	r3, [r7, #12]
 80023c6:	685b      	ldr	r3, [r3, #4]
 80023c8:	2b00      	cmp	r3, #0
 80023ca:	d002      	beq.n	80023d2 <HAL_SPI_TransmitReceive+0x10a>
 80023cc:	8b7b      	ldrh	r3, [r7, #26]
 80023ce:	2b01      	cmp	r3, #1
 80023d0:	d166      	bne.n	80024a0 <HAL_SPI_TransmitReceive+0x1d8>
    {
      hspi->Instance->DR = *((uint16_t *)hspi->pTxBuffPtr);
 80023d2:	68fb      	ldr	r3, [r7, #12]
 80023d4:	6b1b      	ldr	r3, [r3, #48]	; 0x30
 80023d6:	881a      	ldrh	r2, [r3, #0]
 80023d8:	68fb      	ldr	r3, [r7, #12]
 80023da:	681b      	ldr	r3, [r3, #0]
 80023dc:	60da      	str	r2, [r3, #12]
      hspi->pTxBuffPtr += sizeof(uint16_t);
 80023de:	68fb      	ldr	r3, [r7, #12]
 80023e0:	6b1b      	ldr	r3, [r3, #48]	; 0x30
 80023e2:	1c9a      	adds	r2, r3, #2
 80023e4:	68fb      	ldr	r3, [r7, #12]
 80023e6:	631a      	str	r2, [r3, #48]	; 0x30
      hspi->TxXferCount--;
 80023e8:	68fb      	ldr	r3, [r7, #12]
 80023ea:	8edb      	ldrh	r3, [r3, #54]	; 0x36
 80023ec:	b29b      	uxth	r3, r3
 80023ee:	3b01      	subs	r3, #1
 80023f0:	b29a      	uxth	r2, r3
 80023f2:	68fb      	ldr	r3, [r7, #12]
 80023f4:	86da      	strh	r2, [r3, #54]	; 0x36
    }
    while ((hspi->TxXferCount > 0U) || (hspi->RxXferCount > 0U))
 80023f6:	e053      	b.n	80024a0 <HAL_SPI_TransmitReceive+0x1d8>
    {
      /* Check TXE flag */
      if ((__HAL_SPI_GET_FLAG(hspi, SPI_FLAG_TXE)) && (hspi->TxXferCount > 0U) && (txallowed == 1U))
 80023f8:	68fb      	ldr	r3, [r7, #12]
 80023fa:	681b      	ldr	r3, [r3, #0]
 80023fc:	689b      	ldr	r3, [r3, #8]
 80023fe:	f003 0302 	and.w	r3, r3, #2
 8002402:	2b02      	cmp	r3, #2
 8002404:	d11b      	bne.n	800243e <HAL_SPI_TransmitReceive+0x176>
 8002406:	68fb      	ldr	r3, [r7, #12]
 8002408:	8edb      	ldrh	r3, [r3, #54]	; 0x36
 800240a:	b29b      	uxth	r3, r3
 800240c:	2b00      	cmp	r3, #0
 800240e:	d016      	beq.n	800243e <HAL_SPI_TransmitReceive+0x176>
 8002410:	6afb      	ldr	r3, [r7, #44]	; 0x2c
 8002412:	2b01      	cmp	r3, #1
 8002414:	d113      	bne.n	800243e <HAL_SPI_TransmitReceive+0x176>
      {
        hspi->Instance->DR = *((uint16_t *)hspi->pTxBuffPtr);
 8002416:	68fb      	ldr	r3, [r7, #12]
 8002418:	6b1b      	ldr	r3, [r3, #48]	; 0x30
 800241a:	881a      	ldrh	r2, [r3, #0]
 800241c:	68fb      	ldr	r3, [r7, #12]
 800241e:	681b      	ldr	r3, [r3, #0]
 8002420:	60da      	str	r2, [r3, #12]
        hspi->pTxBuffPtr += sizeof(uint16_t);
 8002422:	68fb      	ldr	r3, [r7, #12]
 8002424:	6b1b      	ldr	r3, [r3, #48]	; 0x30
 8002426:	1c9a      	adds	r2, r3, #2
 8002428:	68fb      	ldr	r3, [r7, #12]
 800242a:	631a      	str	r2, [r3, #48]	; 0x30
        hspi->TxXferCount--;
 800242c:	68fb      	ldr	r3, [r7, #12]
 800242e:	8edb      	ldrh	r3, [r3, #54]	; 0x36
 8002430:	b29b      	uxth	r3, r3
 8002432:	3b01      	subs	r3, #1
 8002434:	b29a      	uxth	r2, r3
 8002436:	68fb      	ldr	r3, [r7, #12]
 8002438:	86da      	strh	r2, [r3, #54]	; 0x36
        /* Next Data is a reception (Rx). Tx not allowed */
        txallowed = 0U;
 800243a:	2300      	movs	r3, #0
 800243c:	62fb      	str	r3, [r7, #44]	; 0x2c
        }
#endif /* USE_SPI_CRC */
      }

      /* Check RXNE flag */
      if ((__HAL_SPI_GET_FLAG(hspi, SPI_FLAG_RXNE)) && (hspi->RxXferCount > 0U))
 800243e:	68fb      	ldr	r3, [r7, #12]
 8002440:	681b      	ldr	r3, [r3, #0]
 8002442:	689b      	ldr	r3, [r3, #8]
 8002444:	f003 0301 	and.w	r3, r3, #1
 8002448:	2b01      	cmp	r3, #1
 800244a:	d119      	bne.n	8002480 <HAL_SPI_TransmitReceive+0x1b8>
 800244c:	68fb      	ldr	r3, [r7, #12]
 800244e:	8fdb      	ldrh	r3, [r3, #62]	; 0x3e
 8002450:	b29b      	uxth	r3, r3
 8002452:	2b00      	cmp	r3, #0
 8002454:	d014      	beq.n	8002480 <HAL_SPI_TransmitReceive+0x1b8>
      {
        *((uint16_t *)hspi->pRxBuffPtr) = (uint16_t)hspi->Instance->DR;
 8002456:	68fb      	ldr	r3, [r7, #12]
 8002458:	681b      	ldr	r3, [r3, #0]
 800245a:	68da      	ldr	r2, [r3, #12]
 800245c:	68fb      	ldr	r3, [r7, #12]
 800245e:	6b9b      	ldr	r3, [r3, #56]	; 0x38
 8002460:	b292      	uxth	r2, r2
 8002462:	801a      	strh	r2, [r3, #0]
        hspi->pRxBuffPtr += sizeof(uint16_t);
 8002464:	68fb      	ldr	r3, [r7, #12]
 8002466:	6b9b      	ldr	r3, [r3, #56]	; 0x38
 8002468:	1c9a      	adds	r2, r3, #2
 800246a:	68fb      	ldr	r3, [r7, #12]
 800246c:	639a      	str	r2, [r3, #56]	; 0x38
        hspi->RxXferCount--;
 800246e:	68fb      	ldr	r3, [r7, #12]
 8002470:	8fdb      	ldrh	r3, [r3, #62]	; 0x3e
 8002472:	b29b      	uxth	r3, r3
 8002474:	3b01      	subs	r3, #1
 8002476:	b29a      	uxth	r2, r3
 8002478:	68fb      	ldr	r3, [r7, #12]
 800247a:	87da      	strh	r2, [r3, #62]	; 0x3e
        /* Next Data is a Transmission (Tx). Tx is allowed */
        txallowed = 1U;
 800247c:	2301      	movs	r3, #1
 800247e:	62fb      	str	r3, [r7, #44]	; 0x2c
      }
      if (((HAL_GetTick() - tickstart) >=  Timeout) && (Timeout != HAL_MAX_DELAY))
 8002480:	f7fe fca4 	bl	8000dcc <HAL_GetTick>
 8002484:	4602      	mov	r2, r0
 8002486:	6a7b      	ldr	r3, [r7, #36]	; 0x24
 8002488:	1ad3      	subs	r3, r2, r3
 800248a:	6bba      	ldr	r2, [r7, #56]	; 0x38
 800248c:	429a      	cmp	r2, r3
 800248e:	d807      	bhi.n	80024a0 <HAL_SPI_TransmitReceive+0x1d8>
 8002490:	6bbb      	ldr	r3, [r7, #56]	; 0x38
 8002492:	f1b3 3fff 	cmp.w	r3, #4294967295	; 0xffffffff
 8002496:	d003      	beq.n	80024a0 <HAL_SPI_TransmitReceive+0x1d8>
      {
        errorcode = HAL_TIMEOUT;
 8002498:	2303      	movs	r3, #3
 800249a:	f887 302b 	strb.w	r3, [r7, #43]	; 0x2b
        goto error;
 800249e:	e0a7      	b.n	80025f0 <HAL_SPI_TransmitReceive+0x328>
    while ((hspi->TxXferCount > 0U) || (hspi->RxXferCount > 0U))
 80024a0:	68fb      	ldr	r3, [r7, #12]
 80024a2:	8edb      	ldrh	r3, [r3, #54]	; 0x36
 80024a4:	b29b      	uxth	r3, r3
 80024a6:	2b00      	cmp	r3, #0
 80024a8:	d1a6      	bne.n	80023f8 <HAL_SPI_TransmitReceive+0x130>
 80024aa:	68fb      	ldr	r3, [r7, #12]
 80024ac:	8fdb      	ldrh	r3, [r3, #62]	; 0x3e
 80024ae:	b29b      	uxth	r3, r3
 80024b0:	2b00      	cmp	r3, #0
 80024b2:	d1a1      	bne.n	80023f8 <HAL_SPI_TransmitReceive+0x130>
 80024b4:	e07c      	b.n	80025b0 <HAL_SPI_TransmitReceive+0x2e8>
    }
  }
  /* Transmit and Receive data in 8 Bit mode */
  else
  {
    if ((hspi->Init.Mode == SPI_MODE_SLAVE) || (initial_TxXferCount == 0x01U))
 80024b6:	68fb      	ldr	r3, [r7, #12]
 80024b8:	685b      	ldr	r3, [r3, #4]
 80024ba:	2b00      	cmp	r3, #0
 80024bc:	d002      	beq.n	80024c4 <HAL_SPI_TransmitReceive+0x1fc>
 80024be:	8b7b      	ldrh	r3, [r7, #26]
 80024c0:	2b01      	cmp	r3, #1
 80024c2:	d16b      	bne.n	800259c <HAL_SPI_TransmitReceive+0x2d4>
    {
      *((__IO uint8_t *)&hspi->Instance->DR) = (*hspi->pTxBuffPtr);
 80024c4:	68fb      	ldr	r3, [r7, #12]
 80024c6:	6b1a      	ldr	r2, [r3, #48]	; 0x30
 80024c8:	68fb      	ldr	r3, [r7, #12]
 80024ca:	681b      	ldr	r3, [r3, #0]
 80024cc:	330c      	adds	r3, #12
 80024ce:	7812      	ldrb	r2, [r2, #0]
 80024d0:	701a      	strb	r2, [r3, #0]
      hspi->pTxBuffPtr += sizeof(uint8_t);
 80024d2:	68fb      	ldr	r3, [r7, #12]
 80024d4:	6b1b      	ldr	r3, [r3, #48]	; 0x30
 80024d6:	1c5a      	adds	r2, r3, #1
 80024d8:	68fb      	ldr	r3, [r7, #12]
 80024da:	631a      	str	r2, [r3, #48]	; 0x30
      hspi->TxXferCount--;
 80024dc:	68fb      	ldr	r3, [r7, #12]
 80024de:	8edb      	ldrh	r3, [r3, #54]	; 0x36
 80024e0:	b29b      	uxth	r3, r3
 80024e2:	3b01      	subs	r3, #1
 80024e4:	b29a      	uxth	r2, r3
 80024e6:	68fb      	ldr	r3, [r7, #12]
 80024e8:	86da      	strh	r2, [r3, #54]	; 0x36
    }
    while ((hspi->TxXferCount > 0U) || (hspi->RxXferCount > 0U))
 80024ea:	e057      	b.n	800259c <HAL_SPI_TransmitReceive+0x2d4>
    {
      /* Check TXE flag */
      if ((__HAL_SPI_GET_FLAG(hspi, SPI_FLAG_TXE)) && (hspi->TxXferCount > 0U) && (txallowed == 1U))
 80024ec:	68fb      	ldr	r3, [r7, #12]
 80024ee:	681b      	ldr	r3, [r3, #0]
 80024f0:	689b      	ldr	r3, [r3, #8]
 80024f2:	f003 0302 	and.w	r3, r3, #2
 80024f6:	2b02      	cmp	r3, #2
 80024f8:	d11c      	bne.n	8002534 <HAL_SPI_TransmitReceive+0x26c>
 80024fa:	68fb      	ldr	r3, [r7, #12]
 80024fc:	8edb      	ldrh	r3, [r3, #54]	; 0x36
 80024fe:	b29b      	uxth	r3, r3
 8002500:	2b00      	cmp	r3, #0
 8002502:	d017      	beq.n	8002534 <HAL_SPI_TransmitReceive+0x26c>
 8002504:	6afb      	ldr	r3, [r7, #44]	; 0x2c
 8002506:	2b01      	cmp	r3, #1
 8002508:	d114      	bne.n	8002534 <HAL_SPI_TransmitReceive+0x26c>
      {
        *(__IO uint8_t *)&hspi->Instance->DR = (*hspi->pTxBuffPtr);
 800250a:	68fb      	ldr	r3, [r7, #12]
 800250c:	6b1a      	ldr	r2, [r3, #48]	; 0x30
 800250e:	68fb      	ldr	r3, [r7, #12]
 8002510:	681b      	ldr	r3, [r3, #0]
 8002512:	330c      	adds	r3, #12
 8002514:	7812      	ldrb	r2, [r2, #0]
 8002516:	701a      	strb	r2, [r3, #0]
        hspi->pTxBuffPtr++;
 8002518:	68fb      	ldr	r3, [r7, #12]
 800251a:	6b1b      	ldr	r3, [r3, #48]	; 0x30
 800251c:	1c5a      	adds	r2, r3, #1
 800251e:	68fb      	ldr	r3, [r7, #12]
 8002520:	631a      	str	r2, [r3, #48]	; 0x30
        hspi->TxXferCount--;
 8002522:	68fb      	ldr	r3, [r7, #12]
 8002524:	8edb      	ldrh	r3, [r3, #54]	; 0x36
 8002526:	b29b      	uxth	r3, r3
 8002528:	3b01      	subs	r3, #1
 800252a:	b29a      	uxth	r2, r3
 800252c:	68fb      	ldr	r3, [r7, #12]
 800252e:	86da      	strh	r2, [r3, #54]	; 0x36
        /* Next Data is a reception (Rx). Tx not allowed */
        txallowed = 0U;
 8002530:	2300      	movs	r3, #0
 8002532:	62fb      	str	r3, [r7, #44]	; 0x2c
        }
#endif /* USE_SPI_CRC */
      }

      /* Wait until RXNE flag is reset */
      if ((__HAL_SPI_GET_FLAG(hspi, SPI_FLAG_RXNE)) && (hspi->RxXferCount > 0U))
 8002534:	68fb      	ldr	r3, [r7, #12]
 8002536:	681b      	ldr	r3, [r3, #0]
 8002538:	689b      	ldr	r3, [r3, #8]
 800253a:	f003 0301 	and.w	r3, r3, #1
 800253e:	2b01      	cmp	r3, #1
 8002540:	d119      	bne.n	8002576 <HAL_SPI_TransmitReceive+0x2ae>
 8002542:	68fb      	ldr	r3, [r7, #12]
 8002544:	8fdb      	ldrh	r3, [r3, #62]	; 0x3e
 8002546:	b29b      	uxth	r3, r3
 8002548:	2b00      	cmp	r3, #0
 800254a:	d014      	beq.n	8002576 <HAL_SPI_TransmitReceive+0x2ae>
      {
        (*(uint8_t *)hspi->pRxBuffPtr) = hspi->Instance->DR;
 800254c:	68fb      	ldr	r3, [r7, #12]
 800254e:	681b      	ldr	r3, [r3, #0]
 8002550:	68da      	ldr	r2, [r3, #12]
 8002552:	68fb      	ldr	r3, [r7, #12]
 8002554:	6b9b      	ldr	r3, [r3, #56]	; 0x38
 8002556:	b2d2      	uxtb	r2, r2
 8002558:	701a      	strb	r2, [r3, #0]
        hspi->pRxBuffPtr++;
 800255a:	68fb      	ldr	r3, [r7, #12]
 800255c:	6b9b      	ldr	r3, [r3, #56]	; 0x38
 800255e:	1c5a      	adds	r2, r3, #1
 8002560:	68fb      	ldr	r3, [r7, #12]
 8002562:	639a      	str	r2, [r3, #56]	; 0x38
        hspi->RxXferCount--;
 8002564:	68fb      	ldr	r3, [r7, #12]
 8002566:	8fdb      	ldrh	r3, [r3, #62]	; 0x3e
 8002568:	b29b      	uxth	r3, r3
 800256a:	3b01      	subs	r3, #1
 800256c:	b29a      	uxth	r2, r3
 800256e:	68fb      	ldr	r3, [r7, #12]
 8002570:	87da      	strh	r2, [r3, #62]	; 0x3e
        /* Next Data is a Transmission (Tx). Tx is allowed */
        txallowed = 1U;
 8002572:	2301      	movs	r3, #1
 8002574:	62fb      	str	r3, [r7, #44]	; 0x2c
      }
      if ((((HAL_GetTick() - tickstart) >=  Timeout) && ((Timeout != HAL_MAX_DELAY))) || (Timeout == 0U))
 8002576:	f7fe fc29 	bl	8000dcc <HAL_GetTick>
 800257a:	4602      	mov	r2, r0
 800257c:	6a7b      	ldr	r3, [r7, #36]	; 0x24
 800257e:	1ad3      	subs	r3, r2, r3
 8002580:	6bba      	ldr	r2, [r7, #56]	; 0x38
 8002582:	429a      	cmp	r2, r3
 8002584:	d803      	bhi.n	800258e <HAL_SPI_TransmitReceive+0x2c6>
 8002586:	6bbb      	ldr	r3, [r7, #56]	; 0x38
 8002588:	f1b3 3fff 	cmp.w	r3, #4294967295	; 0xffffffff
 800258c:	d102      	bne.n	8002594 <HAL_SPI_TransmitReceive+0x2cc>
 800258e:	6bbb      	ldr	r3, [r7, #56]	; 0x38
 8002590:	2b00      	cmp	r3, #0
 8002592:	d103      	bne.n	800259c <HAL_SPI_TransmitReceive+0x2d4>
      {
        errorcode = HAL_TIMEOUT;
 8002594:	2303      	movs	r3, #3
 8002596:	f887 302b 	strb.w	r3, [r7, #43]	; 0x2b
        goto error;
 800259a:	e029      	b.n	80025f0 <HAL_SPI_TransmitReceive+0x328>
    while ((hspi->TxXferCount > 0U) || (hspi->RxXferCount > 0U))
 800259c:	68fb      	ldr	r3, [r7, #12]
 800259e:	8edb      	ldrh	r3, [r3, #54]	; 0x36
 80025a0:	b29b      	uxth	r3, r3
 80025a2:	2b00      	cmp	r3, #0
 80025a4:	d1a2      	bne.n	80024ec <HAL_SPI_TransmitReceive+0x224>
 80025a6:	68fb      	ldr	r3, [r7, #12]
 80025a8:	8fdb      	ldrh	r3, [r3, #62]	; 0x3e
 80025aa:	b29b      	uxth	r3, r3
 80025ac:	2b00      	cmp	r3, #0
 80025ae:	d19d      	bne.n	80024ec <HAL_SPI_TransmitReceive+0x224>
    errorcode = HAL_ERROR;
  }
#endif /* USE_SPI_CRC */

  /* Check the end of the transaction */
  if (SPI_EndRxTxTransaction(hspi, Timeout, tickstart) != HAL_OK)
 80025b0:	6a7a      	ldr	r2, [r7, #36]	; 0x24
 80025b2:	6bb9      	ldr	r1, [r7, #56]	; 0x38
 80025b4:	68f8      	ldr	r0, [r7, #12]
 80025b6:	f000 f917 	bl	80027e8 <SPI_EndRxTxTransaction>
 80025ba:	4603      	mov	r3, r0
 80025bc:	2b00      	cmp	r3, #0
 80025be:	d006      	beq.n	80025ce <HAL_SPI_TransmitReceive+0x306>
  {
    errorcode = HAL_ERROR;
 80025c0:	2301      	movs	r3, #1
 80025c2:	f887 302b 	strb.w	r3, [r7, #43]	; 0x2b
    hspi->ErrorCode = HAL_SPI_ERROR_FLAG;
 80025c6:	68fb      	ldr	r3, [r7, #12]
 80025c8:	2220      	movs	r2, #32
 80025ca:	655a      	str	r2, [r3, #84]	; 0x54
    goto error;
 80025cc:	e010      	b.n	80025f0 <HAL_SPI_TransmitReceive+0x328>
  }

  /* Clear overrun flag in 2 Lines communication mode because received is not read */
  if (hspi->Init.Direction == SPI_DIRECTION_2LINES)
 80025ce:	68fb      	ldr	r3, [r7, #12]
 80025d0:	689b      	ldr	r3, [r3, #8]
 80025d2:	2b00      	cmp	r3, #0
 80025d4:	d10b      	bne.n	80025ee <HAL_SPI_TransmitReceive+0x326>
  {
    __HAL_SPI_CLEAR_OVRFLAG(hspi);
 80025d6:	2300      	movs	r3, #0
 80025d8:	617b      	str	r3, [r7, #20]
 80025da:	68fb      	ldr	r3, [r7, #12]
 80025dc:	681b      	ldr	r3, [r3, #0]
 80025de:	68db      	ldr	r3, [r3, #12]
 80025e0:	617b      	str	r3, [r7, #20]
 80025e2:	68fb      	ldr	r3, [r7, #12]
 80025e4:	681b      	ldr	r3, [r3, #0]
 80025e6:	689b      	ldr	r3, [r3, #8]
 80025e8:	617b      	str	r3, [r7, #20]
 80025ea:	697b      	ldr	r3, [r7, #20]
 80025ec:	e000      	b.n	80025f0 <HAL_SPI_TransmitReceive+0x328>
  }

error :
 80025ee:	bf00      	nop
  hspi->State = HAL_SPI_STATE_READY;
 80025f0:	68fb      	ldr	r3, [r7, #12]
 80025f2:	2201      	movs	r2, #1
 80025f4:	f883 2051 	strb.w	r2, [r3, #81]	; 0x51
  __HAL_UNLOCK(hspi);
 80025f8:	68fb      	ldr	r3, [r7, #12]
 80025fa:	2200      	movs	r2, #0
 80025fc:	f883 2050 	strb.w	r2, [r3, #80]	; 0x50
  return errorcode;
 8002600:	f897 302b 	ldrb.w	r3, [r7, #43]	; 0x2b
}
 8002604:	4618      	mov	r0, r3
 8002606:	3730      	adds	r7, #48	; 0x30
 8002608:	46bd      	mov	sp, r7
 800260a:	bd80      	pop	{r7, pc}

0800260c <SPI_WaitFlagStateUntilTimeout>:
  * @param  Tickstart tick start value
  * @retval HAL status
  */
static HAL_StatusTypeDef SPI_WaitFlagStateUntilTimeout(SPI_HandleTypeDef *hspi, uint32_t Flag, FlagStatus State,
                                                       uint32_t Timeout, uint32_t Tickstart)
{
 800260c:	b580      	push	{r7, lr}
 800260e:	b088      	sub	sp, #32
 8002610:	af00      	add	r7, sp, #0
 8002612:	60f8      	str	r0, [r7, #12]
 8002614:	60b9      	str	r1, [r7, #8]
 8002616:	603b      	str	r3, [r7, #0]
 8002618:	4613      	mov	r3, r2
 800261a:	71fb      	strb	r3, [r7, #7]
  __IO uint32_t count;
  uint32_t tmp_timeout;
  uint32_t tmp_tickstart;

  /* Adjust Timeout value  in case of end of transfer */
  tmp_timeout   = Timeout - (HAL_GetTick() - Tickstart);
 800261c:	f7fe fbd6 	bl	8000dcc <HAL_GetTick>
 8002620:	4602      	mov	r2, r0
 8002622:	6abb      	ldr	r3, [r7, #40]	; 0x28
 8002624:	1a9b      	subs	r3, r3, r2
 8002626:	683a      	ldr	r2, [r7, #0]
 8002628:	4413      	add	r3, r2
 800262a:	61fb      	str	r3, [r7, #28]
  tmp_tickstart = HAL_GetTick();
 800262c:	f7fe fbce 	bl	8000dcc <HAL_GetTick>
 8002630:	61b8      	str	r0, [r7, #24]

  /* Calculate Timeout based on a software loop to avoid blocking issue if Systick is disabled */
  count = tmp_timeout * ((SystemCoreClock * 32U) >> 20U);
 8002632:	4b39      	ldr	r3, [pc, #228]	; (8002718 <SPI_WaitFlagStateUntilTimeout+0x10c>)
 8002634:	681b      	ldr	r3, [r3, #0]
 8002636:	015b      	lsls	r3, r3, #5
 8002638:	0d1b      	lsrs	r3, r3, #20
 800263a:	69fa      	ldr	r2, [r7, #28]
 800263c:	fb02 f303 	mul.w	r3, r2, r3
 8002640:	617b      	str	r3, [r7, #20]

  while ((__HAL_SPI_GET_FLAG(hspi, Flag) ? SET : RESET) != State)
 8002642:	e054      	b.n	80026ee <SPI_WaitFlagStateUntilTimeout+0xe2>
  {
    if (Timeout != HAL_MAX_DELAY)
 8002644:	683b      	ldr	r3, [r7, #0]
 8002646:	f1b3 3fff 	cmp.w	r3, #4294967295	; 0xffffffff
 800264a:	d050      	beq.n	80026ee <SPI_WaitFlagStateUntilTimeout+0xe2>
    {
      if (((HAL_GetTick() - tmp_tickstart) >= tmp_timeout) || (tmp_timeout == 0U))
 800264c:	f7fe fbbe 	bl	8000dcc <HAL_GetTick>
 8002650:	4602      	mov	r2, r0
 8002652:	69bb      	ldr	r3, [r7, #24]
 8002654:	1ad3      	subs	r3, r2, r3
 8002656:	69fa      	ldr	r2, [r7, #28]
 8002658:	429a      	cmp	r2, r3
 800265a:	d902      	bls.n	8002662 <SPI_WaitFlagStateUntilTimeout+0x56>
 800265c:	69fb      	ldr	r3, [r7, #28]
 800265e:	2b00      	cmp	r3, #0
 8002660:	d13d      	bne.n	80026de <SPI_WaitFlagStateUntilTimeout+0xd2>
        /* Disable the SPI and reset the CRC: the CRC value should be cleared
           on both master and slave sides in order to resynchronize the master
           and slave for their respective CRC calculation */

        /* Disable TXE, RXNE and ERR interrupts for the interrupt process */
        __HAL_SPI_DISABLE_IT(hspi, (SPI_IT_TXE | SPI_IT_RXNE | SPI_IT_ERR));
 8002662:	68fb      	ldr	r3, [r7, #12]
 8002664:	681b      	ldr	r3, [r3, #0]
 8002666:	685a      	ldr	r2, [r3, #4]
 8002668:	68fb      	ldr	r3, [r7, #12]
 800266a:	681b      	ldr	r3, [r3, #0]
 800266c:	f022 02e0 	bic.w	r2, r2, #224	; 0xe0
 8002670:	605a      	str	r2, [r3, #4]

        if ((hspi->Init.Mode == SPI_MODE_MASTER) && ((hspi->Init.Direction == SPI_DIRECTION_1LINE)
 8002672:	68fb      	ldr	r3, [r7, #12]
 8002674:	685b      	ldr	r3, [r3, #4]
 8002676:	f5b3 7f82 	cmp.w	r3, #260	; 0x104
 800267a:	d111      	bne.n	80026a0 <SPI_WaitFlagStateUntilTimeout+0x94>
 800267c:	68fb      	ldr	r3, [r7, #12]
 800267e:	689b      	ldr	r3, [r3, #8]
 8002680:	f5b3 4f00 	cmp.w	r3, #32768	; 0x8000
 8002684:	d004      	beq.n	8002690 <SPI_WaitFlagStateUntilTimeout+0x84>
                                                     || (hspi->Init.Direction == SPI_DIRECTION_2LINES_RXONLY)))
 8002686:	68fb      	ldr	r3, [r7, #12]
 8002688:	689b      	ldr	r3, [r3, #8]
 800268a:	f5b3 6f80 	cmp.w	r3, #1024	; 0x400
 800268e:	d107      	bne.n	80026a0 <SPI_WaitFlagStateUntilTimeout+0x94>
        {
          /* Disable SPI peripheral */
          __HAL_SPI_DISABLE(hspi);
 8002690:	68fb      	ldr	r3, [r7, #12]
 8002692:	681b      	ldr	r3, [r3, #0]
 8002694:	681a      	ldr	r2, [r3, #0]
 8002696:	68fb      	ldr	r3, [r7, #12]
 8002698:	681b      	ldr	r3, [r3, #0]
 800269a:	f022 0240 	bic.w	r2, r2, #64	; 0x40
 800269e:	601a      	str	r2, [r3, #0]
        }

        /* Reset CRC Calculation */
        if (hspi->Init.CRCCalculation == SPI_CRCCALCULATION_ENABLE)
 80026a0:	68fb      	ldr	r3, [r7, #12]
 80026a2:	6a9b      	ldr	r3, [r3, #40]	; 0x28
 80026a4:	f5b3 5f00 	cmp.w	r3, #8192	; 0x2000
 80026a8:	d10f      	bne.n	80026ca <SPI_WaitFlagStateUntilTimeout+0xbe>
        {
          SPI_RESET_CRC(hspi);
 80026aa:	68fb      	ldr	r3, [r7, #12]
 80026ac:	681b      	ldr	r3, [r3, #0]
 80026ae:	681a      	ldr	r2, [r3, #0]
 80026b0:	68fb      	ldr	r3, [r7, #12]
 80026b2:	681b      	ldr	r3, [r3, #0]
 80026b4:	f422 5200 	bic.w	r2, r2, #8192	; 0x2000
 80026b8:	601a      	str	r2, [r3, #0]
 80026ba:	68fb      	ldr	r3, [r7, #12]
 80026bc:	681b      	ldr	r3, [r3, #0]
 80026be:	681a      	ldr	r2, [r3, #0]
 80026c0:	68fb      	ldr	r3, [r7, #12]
 80026c2:	681b      	ldr	r3, [r3, #0]
 80026c4:	f442 5200 	orr.w	r2, r2, #8192	; 0x2000
 80026c8:	601a      	str	r2, [r3, #0]
        }

        hspi->State = HAL_SPI_STATE_READY;
 80026ca:	68fb      	ldr	r3, [r7, #12]
 80026cc:	2201      	movs	r2, #1
 80026ce:	f883 2051 	strb.w	r2, [r3, #81]	; 0x51

        /* Process Unlocked */
        __HAL_UNLOCK(hspi);
 80026d2:	68fb      	ldr	r3, [r7, #12]
 80026d4:	2200      	movs	r2, #0
 80026d6:	f883 2050 	strb.w	r2, [r3, #80]	; 0x50

        return HAL_TIMEOUT;
 80026da:	2303      	movs	r3, #3
 80026dc:	e017      	b.n	800270e <SPI_WaitFlagStateUntilTimeout+0x102>
      }
      /* If Systick is disabled or not incremented, deactivate timeout to go in disable loop procedure */
      if (count == 0U)
 80026de:	697b      	ldr	r3, [r7, #20]
 80026e0:	2b00      	cmp	r3, #0
 80026e2:	d101      	bne.n	80026e8 <SPI_WaitFlagStateUntilTimeout+0xdc>
      {
        tmp_timeout = 0U;
 80026e4:	2300      	movs	r3, #0
 80026e6:	61fb      	str	r3, [r7, #28]
      }
      count--;
 80026e8:	697b      	ldr	r3, [r7, #20]
 80026ea:	3b01      	subs	r3, #1
 80026ec:	617b      	str	r3, [r7, #20]
  while ((__HAL_SPI_GET_FLAG(hspi, Flag) ? SET : RESET) != State)
 80026ee:	68fb      	ldr	r3, [r7, #12]
 80026f0:	681b      	ldr	r3, [r3, #0]
 80026f2:	689a      	ldr	r2, [r3, #8]
 80026f4:	68bb      	ldr	r3, [r7, #8]
 80026f6:	4013      	ands	r3, r2
 80026f8:	68ba      	ldr	r2, [r7, #8]
 80026fa:	429a      	cmp	r2, r3
 80026fc:	bf0c      	ite	eq
 80026fe:	2301      	moveq	r3, #1
 8002700:	2300      	movne	r3, #0
 8002702:	b2db      	uxtb	r3, r3
 8002704:	461a      	mov	r2, r3
 8002706:	79fb      	ldrb	r3, [r7, #7]
 8002708:	429a      	cmp	r2, r3
 800270a:	d19b      	bne.n	8002644 <SPI_WaitFlagStateUntilTimeout+0x38>
    }
  }

  return HAL_OK;
 800270c:	2300      	movs	r3, #0
}
 800270e:	4618      	mov	r0, r3
 8002710:	3720      	adds	r7, #32
 8002712:	46bd      	mov	sp, r7
 8002714:	bd80      	pop	{r7, pc}
 8002716:	bf00      	nop
 8002718:	20000000 	.word	0x20000000

0800271c <SPI_EndRxTransaction>:
  * @param  Timeout Timeout duration
  * @param  Tickstart tick start value
  * @retval HAL status
  */
static HAL_StatusTypeDef SPI_EndRxTransaction(SPI_HandleTypeDef *hspi,  uint32_t Timeout, uint32_t Tickstart)
{
 800271c:	b580      	push	{r7, lr}
 800271e:	b086      	sub	sp, #24
 8002720:	af02      	add	r7, sp, #8
 8002722:	60f8      	str	r0, [r7, #12]
 8002724:	60b9      	str	r1, [r7, #8]
 8002726:	607a      	str	r2, [r7, #4]
  if ((hspi->Init.Mode == SPI_MODE_MASTER) && ((hspi->Init.Direction == SPI_DIRECTION_1LINE)
 8002728:	68fb      	ldr	r3, [r7, #12]
 800272a:	685b      	ldr	r3, [r3, #4]
 800272c:	f5b3 7f82 	cmp.w	r3, #260	; 0x104
 8002730:	d111      	bne.n	8002756 <SPI_EndRxTransaction+0x3a>
 8002732:	68fb      	ldr	r3, [r7, #12]
 8002734:	689b      	ldr	r3, [r3, #8]
 8002736:	f5b3 4f00 	cmp.w	r3, #32768	; 0x8000
 800273a:	d004      	beq.n	8002746 <SPI_EndRxTransaction+0x2a>
                                               || (hspi->Init.Direction == SPI_DIRECTION_2LINES_RXONLY)))
 800273c:	68fb      	ldr	r3, [r7, #12]
 800273e:	689b      	ldr	r3, [r3, #8]
 8002740:	f5b3 6f80 	cmp.w	r3, #1024	; 0x400
 8002744:	d107      	bne.n	8002756 <SPI_EndRxTransaction+0x3a>
  {
    /* Disable SPI peripheral */
    __HAL_SPI_DISABLE(hspi);
 8002746:	68fb      	ldr	r3, [r7, #12]
 8002748:	681b      	ldr	r3, [r3, #0]
 800274a:	681a      	ldr	r2, [r3, #0]
 800274c:	68fb      	ldr	r3, [r7, #12]
 800274e:	681b      	ldr	r3, [r3, #0]
 8002750:	f022 0240 	bic.w	r2, r2, #64	; 0x40
 8002754:	601a      	str	r2, [r3, #0]
  }

  /* Erratasheet: BSY bit may stay high at the end of a data transfer in Slave mode */
  if (hspi->Init.Mode == SPI_MODE_MASTER)
 8002756:	68fb      	ldr	r3, [r7, #12]
 8002758:	685b      	ldr	r3, [r3, #4]
 800275a:	f5b3 7f82 	cmp.w	r3, #260	; 0x104
 800275e:	d12a      	bne.n	80027b6 <SPI_EndRxTransaction+0x9a>
  {
    if (hspi->Init.Direction != SPI_DIRECTION_2LINES_RXONLY)
 8002760:	68fb      	ldr	r3, [r7, #12]
 8002762:	689b      	ldr	r3, [r3, #8]
 8002764:	f5b3 6f80 	cmp.w	r3, #1024	; 0x400
 8002768:	d012      	beq.n	8002790 <SPI_EndRxTransaction+0x74>
    {
      /* Control the BSY flag */
      if (SPI_WaitFlagStateUntilTimeout(hspi, SPI_FLAG_BSY, RESET, Timeout, Tickstart) != HAL_OK)
 800276a:	687b      	ldr	r3, [r7, #4]
 800276c:	9300      	str	r3, [sp, #0]
 800276e:	68bb      	ldr	r3, [r7, #8]
 8002770:	2200      	movs	r2, #0
 8002772:	2180      	movs	r1, #128	; 0x80
 8002774:	68f8      	ldr	r0, [r7, #12]
 8002776:	f7ff ff49 	bl	800260c <SPI_WaitFlagStateUntilTimeout>
 800277a:	4603      	mov	r3, r0
 800277c:	2b00      	cmp	r3, #0
 800277e:	d02d      	beq.n	80027dc <SPI_EndRxTransaction+0xc0>
      {
        SET_BIT(hspi->ErrorCode, HAL_SPI_ERROR_FLAG);
 8002780:	68fb      	ldr	r3, [r7, #12]
 8002782:	6d5b      	ldr	r3, [r3, #84]	; 0x54
 8002784:	f043 0220 	orr.w	r2, r3, #32
 8002788:	68fb      	ldr	r3, [r7, #12]
 800278a:	655a      	str	r2, [r3, #84]	; 0x54
        return HAL_TIMEOUT;
 800278c:	2303      	movs	r3, #3
 800278e:	e026      	b.n	80027de <SPI_EndRxTransaction+0xc2>
      }
    }
    else
    {
      /* Wait the RXNE reset */
      if (SPI_WaitFlagStateUntilTimeout(hspi, SPI_FLAG_RXNE, RESET, Timeout, Tickstart) != HAL_OK)
 8002790:	687b      	ldr	r3, [r7, #4]
 8002792:	9300      	str	r3, [sp, #0]
 8002794:	68bb      	ldr	r3, [r7, #8]
 8002796:	2200      	movs	r2, #0
 8002798:	2101      	movs	r1, #1
 800279a:	68f8      	ldr	r0, [r7, #12]
 800279c:	f7ff ff36 	bl	800260c <SPI_WaitFlagStateUntilTimeout>
 80027a0:	4603      	mov	r3, r0
 80027a2:	2b00      	cmp	r3, #0
 80027a4:	d01a      	beq.n	80027dc <SPI_EndRxTransaction+0xc0>
      {
        SET_BIT(hspi->ErrorCode, HAL_SPI_ERROR_FLAG);
 80027a6:	68fb      	ldr	r3, [r7, #12]
 80027a8:	6d5b      	ldr	r3, [r3, #84]	; 0x54
 80027aa:	f043 0220 	orr.w	r2, r3, #32
 80027ae:	68fb      	ldr	r3, [r7, #12]
 80027b0:	655a      	str	r2, [r3, #84]	; 0x54
        return HAL_TIMEOUT;
 80027b2:	2303      	movs	r3, #3
 80027b4:	e013      	b.n	80027de <SPI_EndRxTransaction+0xc2>
    }
  }
  else
  {
    /* Wait the RXNE reset */
    if (SPI_WaitFlagStateUntilTimeout(hspi, SPI_FLAG_RXNE, RESET, Timeout, Tickstart) != HAL_OK)
 80027b6:	687b      	ldr	r3, [r7, #4]
 80027b8:	9300      	str	r3, [sp, #0]
 80027ba:	68bb      	ldr	r3, [r7, #8]
 80027bc:	2200      	movs	r2, #0
 80027be:	2101      	movs	r1, #1
 80027c0:	68f8      	ldr	r0, [r7, #12]
 80027c2:	f7ff ff23 	bl	800260c <SPI_WaitFlagStateUntilTimeout>
 80027c6:	4603      	mov	r3, r0
 80027c8:	2b00      	cmp	r3, #0
 80027ca:	d007      	beq.n	80027dc <SPI_EndRxTransaction+0xc0>
    {
      SET_BIT(hspi->ErrorCode, HAL_SPI_ERROR_FLAG);
 80027cc:	68fb      	ldr	r3, [r7, #12]
 80027ce:	6d5b      	ldr	r3, [r3, #84]	; 0x54
 80027d0:	f043 0220 	orr.w	r2, r3, #32
 80027d4:	68fb      	ldr	r3, [r7, #12]
 80027d6:	655a      	str	r2, [r3, #84]	; 0x54
      return HAL_TIMEOUT;
 80027d8:	2303      	movs	r3, #3
 80027da:	e000      	b.n	80027de <SPI_EndRxTransaction+0xc2>
    }
  }
  return HAL_OK;
 80027dc:	2300      	movs	r3, #0
}
 80027de:	4618      	mov	r0, r3
 80027e0:	3710      	adds	r7, #16
 80027e2:	46bd      	mov	sp, r7
 80027e4:	bd80      	pop	{r7, pc}
	...

080027e8 <SPI_EndRxTxTransaction>:
  * @param  Timeout Timeout duration
  * @param  Tickstart tick start value
  * @retval HAL status
  */
static HAL_StatusTypeDef SPI_EndRxTxTransaction(SPI_HandleTypeDef *hspi, uint32_t Timeout, uint32_t Tickstart)
{
 80027e8:	b580      	push	{r7, lr}
 80027ea:	b088      	sub	sp, #32
 80027ec:	af02      	add	r7, sp, #8
 80027ee:	60f8      	str	r0, [r7, #12]
 80027f0:	60b9      	str	r1, [r7, #8]
 80027f2:	607a      	str	r2, [r7, #4]
  /* Timeout in s */
  __IO uint32_t count = SPI_BSY_FLAG_WORKAROUND_TIMEOUT * (SystemCoreClock / 24U / 1000000U);
 80027f4:	4b1b      	ldr	r3, [pc, #108]	; (8002864 <SPI_EndRxTxTransaction+0x7c>)
 80027f6:	681b      	ldr	r3, [r3, #0]
 80027f8:	4a1b      	ldr	r2, [pc, #108]	; (8002868 <SPI_EndRxTxTransaction+0x80>)
 80027fa:	fba2 2303 	umull	r2, r3, r2, r3
 80027fe:	0d5b      	lsrs	r3, r3, #21
 8002800:	f44f 727a 	mov.w	r2, #1000	; 0x3e8
 8002804:	fb02 f303 	mul.w	r3, r2, r3
 8002808:	617b      	str	r3, [r7, #20]
  /* Erratasheet: BSY bit may stay high at the end of a data transfer in Slave mode */
  if (hspi->Init.Mode == SPI_MODE_MASTER)
 800280a:	68fb      	ldr	r3, [r7, #12]
 800280c:	685b      	ldr	r3, [r3, #4]
 800280e:	f5b3 7f82 	cmp.w	r3, #260	; 0x104
 8002812:	d112      	bne.n	800283a <SPI_EndRxTxTransaction+0x52>
  {
    /* Control the BSY flag */
    if (SPI_WaitFlagStateUntilTimeout(hspi, SPI_FLAG_BSY, RESET, Timeout, Tickstart) != HAL_OK)
 8002814:	687b      	ldr	r3, [r7, #4]
 8002816:	9300      	str	r3, [sp, #0]
 8002818:	68bb      	ldr	r3, [r7, #8]
 800281a:	2200      	movs	r2, #0
 800281c:	2180      	movs	r1, #128	; 0x80
 800281e:	68f8      	ldr	r0, [r7, #12]
 8002820:	f7ff fef4 	bl	800260c <SPI_WaitFlagStateUntilTimeout>
 8002824:	4603      	mov	r3, r0
 8002826:	2b00      	cmp	r3, #0
 8002828:	d016      	beq.n	8002858 <SPI_EndRxTxTransaction+0x70>
    {
      SET_BIT(hspi->ErrorCode, HAL_SPI_ERROR_FLAG);
 800282a:	68fb      	ldr	r3, [r7, #12]
 800282c:	6d5b      	ldr	r3, [r3, #84]	; 0x54
 800282e:	f043 0220 	orr.w	r2, r3, #32
 8002832:	68fb      	ldr	r3, [r7, #12]
 8002834:	655a      	str	r2, [r3, #84]	; 0x54
      return HAL_TIMEOUT;
 8002836:	2303      	movs	r3, #3
 8002838:	e00f      	b.n	800285a <SPI_EndRxTxTransaction+0x72>
    * User have to calculate the timeout value to fit with the time of 1 byte transfer.
    * This time is directly link with the SPI clock from Master device.
    */
    do
    {
      if (count == 0U)
 800283a:	697b      	ldr	r3, [r7, #20]
 800283c:	2b00      	cmp	r3, #0
 800283e:	d00a      	beq.n	8002856 <SPI_EndRxTxTransaction+0x6e>
      {
        break;
      }
      count--;
 8002840:	697b      	ldr	r3, [r7, #20]
 8002842:	3b01      	subs	r3, #1
 8002844:	617b      	str	r3, [r7, #20]
    } while (__HAL_SPI_GET_FLAG(hspi, SPI_FLAG_BSY) != RESET);
 8002846:	68fb      	ldr	r3, [r7, #12]
 8002848:	681b      	ldr	r3, [r3, #0]
 800284a:	689b      	ldr	r3, [r3, #8]
 800284c:	f003 0380 	and.w	r3, r3, #128	; 0x80
 8002850:	2b80      	cmp	r3, #128	; 0x80
 8002852:	d0f2      	beq.n	800283a <SPI_EndRxTxTransaction+0x52>
 8002854:	e000      	b.n	8002858 <SPI_EndRxTxTransaction+0x70>
        break;
 8002856:	bf00      	nop
  }

  return HAL_OK;
 8002858:	2300      	movs	r3, #0
}
 800285a:	4618      	mov	r0, r3
 800285c:	3718      	adds	r7, #24
 800285e:	46bd      	mov	sp, r7
 8002860:	bd80      	pop	{r7, pc}
 8002862:	bf00      	nop
 8002864:	20000000 	.word	0x20000000
 8002868:	165e9f81 	.word	0x165e9f81

0800286c <HAL_UART_Init>:
  * @param  huart  Pointer to a UART_HandleTypeDef structure that contains
  *                the configuration information for the specified UART module.
  * @retval HAL status
  */
HAL_StatusTypeDef HAL_UART_Init(UART_HandleTypeDef *huart)
{
 800286c:	b580      	push	{r7, lr}
 800286e:	b082      	sub	sp, #8
 8002870:	af00      	add	r7, sp, #0
 8002872:	6078      	str	r0, [r7, #4]
  /* Check the UART handle allocation */
  if (huart == NULL)
 8002874:	687b      	ldr	r3, [r7, #4]
 8002876:	2b00      	cmp	r3, #0
 8002878:	d101      	bne.n	800287e <HAL_UART_Init+0x12>
  {
    return HAL_ERROR;
 800287a:	2301      	movs	r3, #1
 800287c:	e03f      	b.n	80028fe <HAL_UART_Init+0x92>
    assert_param(IS_UART_INSTANCE(huart->Instance));
  }
  assert_param(IS_UART_WORD_LENGTH(huart->Init.WordLength));
  assert_param(IS_UART_OVERSAMPLING(huart->Init.OverSampling));

  if (huart->gState == HAL_UART_STATE_RESET)
 800287e:	687b      	ldr	r3, [r7, #4]
 8002880:	f893 303d 	ldrb.w	r3, [r3, #61]	; 0x3d
 8002884:	b2db      	uxtb	r3, r3
 8002886:	2b00      	cmp	r3, #0
 8002888:	d106      	bne.n	8002898 <HAL_UART_Init+0x2c>
  {
    /* Allocate lock resource and initialize it */
    huart->Lock = HAL_UNLOCKED;
 800288a:	687b      	ldr	r3, [r7, #4]
 800288c:	2200      	movs	r2, #0
 800288e:	f883 203c 	strb.w	r2, [r3, #60]	; 0x3c

    /* Init the low level hardware */
    huart->MspInitCallback(huart);
#else
    /* Init the low level hardware : GPIO, CLOCK */
    HAL_UART_MspInit(huart);
 8002892:	6878      	ldr	r0, [r7, #4]
 8002894:	f7fe f948 	bl	8000b28 <HAL_UART_MspInit>
#endif /* (USE_HAL_UART_REGISTER_CALLBACKS) */
  }

  huart->gState = HAL_UART_STATE_BUSY;
 8002898:	687b      	ldr	r3, [r7, #4]
 800289a:	2224      	movs	r2, #36	; 0x24
 800289c:	f883 203d 	strb.w	r2, [r3, #61]	; 0x3d

  /* Disable the peripheral */
  __HAL_UART_DISABLE(huart);
 80028a0:	687b      	ldr	r3, [r7, #4]
 80028a2:	681b      	ldr	r3, [r3, #0]
 80028a4:	68da      	ldr	r2, [r3, #12]
 80028a6:	687b      	ldr	r3, [r7, #4]
 80028a8:	681b      	ldr	r3, [r3, #0]
 80028aa:	f422 5200 	bic.w	r2, r2, #8192	; 0x2000
 80028ae:	60da      	str	r2, [r3, #12]

  /* Set the UART Communication parameters */
  UART_SetConfig(huart);
 80028b0:	6878      	ldr	r0, [r7, #4]
 80028b2:	f000 f929 	bl	8002b08 <UART_SetConfig>

  /* In asynchronous mode, the following bits must be kept cleared:
     - LINEN and CLKEN bits in the USART_CR2 register,
     - SCEN, HDSEL and IREN  bits in the USART_CR3 register.*/
  CLEAR_BIT(huart->Instance->CR2, (USART_CR2_LINEN | USART_CR2_CLKEN));
 80028b6:	687b      	ldr	r3, [r7, #4]
 80028b8:	681b      	ldr	r3, [r3, #0]
 80028ba:	691a      	ldr	r2, [r3, #16]
 80028bc:	687b      	ldr	r3, [r7, #4]
 80028be:	681b      	ldr	r3, [r3, #0]
 80028c0:	f422 4290 	bic.w	r2, r2, #18432	; 0x4800
 80028c4:	611a      	str	r2, [r3, #16]
  CLEAR_BIT(huart->Instance->CR3, (USART_CR3_SCEN | USART_CR3_HDSEL | USART_CR3_IREN));
 80028c6:	687b      	ldr	r3, [r7, #4]
 80028c8:	681b      	ldr	r3, [r3, #0]
 80028ca:	695a      	ldr	r2, [r3, #20]
 80028cc:	687b      	ldr	r3, [r7, #4]
 80028ce:	681b      	ldr	r3, [r3, #0]
 80028d0:	f022 022a 	bic.w	r2, r2, #42	; 0x2a
 80028d4:	615a      	str	r2, [r3, #20]

  /* Enable the peripheral */
  __HAL_UART_ENABLE(huart);
 80028d6:	687b      	ldr	r3, [r7, #4]
 80028d8:	681b      	ldr	r3, [r3, #0]
 80028da:	68da      	ldr	r2, [r3, #12]
 80028dc:	687b      	ldr	r3, [r7, #4]
 80028de:	681b      	ldr	r3, [r3, #0]
 80028e0:	f442 5200 	orr.w	r2, r2, #8192	; 0x2000
 80028e4:	60da      	str	r2, [r3, #12]

  /* Initialize the UART state */
  huart->ErrorCode = HAL_UART_ERROR_NONE;
 80028e6:	687b      	ldr	r3, [r7, #4]
 80028e8:	2200      	movs	r2, #0
 80028ea:	641a      	str	r2, [r3, #64]	; 0x40
  huart->gState = HAL_UART_STATE_READY;
 80028ec:	687b      	ldr	r3, [r7, #4]
 80028ee:	2220      	movs	r2, #32
 80028f0:	f883 203d 	strb.w	r2, [r3, #61]	; 0x3d
  huart->RxState = HAL_UART_STATE_READY;
 80028f4:	687b      	ldr	r3, [r7, #4]
 80028f6:	2220      	movs	r2, #32
 80028f8:	f883 203e 	strb.w	r2, [r3, #62]	; 0x3e

  return HAL_OK;
 80028fc:	2300      	movs	r3, #0
}
 80028fe:	4618      	mov	r0, r3
 8002900:	3708      	adds	r7, #8
 8002902:	46bd      	mov	sp, r7
 8002904:	bd80      	pop	{r7, pc}

08002906 <HAL_UART_Transmit>:
  * @param  Size  Amount of data elements (u8 or u16) to be sent
  * @param  Timeout Timeout duration
  * @retval HAL status
  */
HAL_StatusTypeDef HAL_UART_Transmit(UART_HandleTypeDef *huart, const uint8_t *pData, uint16_t Size, uint32_t Timeout)
{
 8002906:	b580      	push	{r7, lr}
 8002908:	b08a      	sub	sp, #40	; 0x28
 800290a:	af02      	add	r7, sp, #8
 800290c:	60f8      	str	r0, [r7, #12]
 800290e:	60b9      	str	r1, [r7, #8]
 8002910:	603b      	str	r3, [r7, #0]
 8002912:	4613      	mov	r3, r2
 8002914:	80fb      	strh	r3, [r7, #6]
  const uint8_t  *pdata8bits;
  const uint16_t *pdata16bits;
  uint32_t tickstart = 0U;
 8002916:	2300      	movs	r3, #0
 8002918:	617b      	str	r3, [r7, #20]

  /* Check that a Tx process is not already ongoing */
  if (huart->gState == HAL_UART_STATE_READY)
 800291a:	68fb      	ldr	r3, [r7, #12]
 800291c:	f893 303d 	ldrb.w	r3, [r3, #61]	; 0x3d
 8002920:	b2db      	uxtb	r3, r3
 8002922:	2b20      	cmp	r3, #32
 8002924:	d17c      	bne.n	8002a20 <HAL_UART_Transmit+0x11a>
  {
    if ((pData == NULL) || (Size == 0U))
 8002926:	68bb      	ldr	r3, [r7, #8]
 8002928:	2b00      	cmp	r3, #0
 800292a:	d002      	beq.n	8002932 <HAL_UART_Transmit+0x2c>
 800292c:	88fb      	ldrh	r3, [r7, #6]
 800292e:	2b00      	cmp	r3, #0
 8002930:	d101      	bne.n	8002936 <HAL_UART_Transmit+0x30>
    {
      return  HAL_ERROR;
 8002932:	2301      	movs	r3, #1
 8002934:	e075      	b.n	8002a22 <HAL_UART_Transmit+0x11c>
    }

    /* Process Locked */
    __HAL_LOCK(huart);
 8002936:	68fb      	ldr	r3, [r7, #12]
 8002938:	f893 303c 	ldrb.w	r3, [r3, #60]	; 0x3c
 800293c:	2b01      	cmp	r3, #1
 800293e:	d101      	bne.n	8002944 <HAL_UART_Transmit+0x3e>
 8002940:	2302      	movs	r3, #2
 8002942:	e06e      	b.n	8002a22 <HAL_UART_Transmit+0x11c>
 8002944:	68fb      	ldr	r3, [r7, #12]
 8002946:	2201      	movs	r2, #1
 8002948:	f883 203c 	strb.w	r2, [r3, #60]	; 0x3c

    huart->ErrorCode = HAL_UART_ERROR_NONE;
 800294c:	68fb      	ldr	r3, [r7, #12]
 800294e:	2200      	movs	r2, #0
 8002950:	641a      	str	r2, [r3, #64]	; 0x40
    huart->gState = HAL_UART_STATE_BUSY_TX;
 8002952:	68fb      	ldr	r3, [r7, #12]
 8002954:	2221      	movs	r2, #33	; 0x21
 8002956:	f883 203d 	strb.w	r2, [r3, #61]	; 0x3d

    /* Init tickstart for timeout management */
    tickstart = HAL_GetTick();
 800295a:	f7fe fa37 	bl	8000dcc <HAL_GetTick>
 800295e:	6178      	str	r0, [r7, #20]

    huart->TxXferSize = Size;
 8002960:	68fb      	ldr	r3, [r7, #12]
 8002962:	88fa      	ldrh	r2, [r7, #6]
 8002964:	849a      	strh	r2, [r3, #36]	; 0x24
    huart->TxXferCount = Size;
 8002966:	68fb      	ldr	r3, [r7, #12]
 8002968:	88fa      	ldrh	r2, [r7, #6]
 800296a:	84da      	strh	r2, [r3, #38]	; 0x26

    /* In case of 9bits/No Parity transfer, pData needs to be handled as a uint16_t pointer */
    if ((huart->Init.WordLength == UART_WORDLENGTH_9B) && (huart->Init.Parity == UART_PARITY_NONE))
 800296c:	68fb      	ldr	r3, [r7, #12]
 800296e:	689b      	ldr	r3, [r3, #8]
 8002970:	f5b3 5f80 	cmp.w	r3, #4096	; 0x1000
 8002974:	d108      	bne.n	8002988 <HAL_UART_Transmit+0x82>
 8002976:	68fb      	ldr	r3, [r7, #12]
 8002978:	691b      	ldr	r3, [r3, #16]
 800297a:	2b00      	cmp	r3, #0
 800297c:	d104      	bne.n	8002988 <HAL_UART_Transmit+0x82>
    {
      pdata8bits  = NULL;
 800297e:	2300      	movs	r3, #0
 8002980:	61fb      	str	r3, [r7, #28]
      pdata16bits = (const uint16_t *) pData;
 8002982:	68bb      	ldr	r3, [r7, #8]
 8002984:	61bb      	str	r3, [r7, #24]
 8002986:	e003      	b.n	8002990 <HAL_UART_Transmit+0x8a>
    }
    else
    {
      pdata8bits  = pData;
 8002988:	68bb      	ldr	r3, [r7, #8]
 800298a:	61fb      	str	r3, [r7, #28]
      pdata16bits = NULL;
 800298c:	2300      	movs	r3, #0
 800298e:	61bb      	str	r3, [r7, #24]
    }

    /* Process Unlocked */
    __HAL_UNLOCK(huart);
 8002990:	68fb      	ldr	r3, [r7, #12]
 8002992:	2200      	movs	r2, #0
 8002994:	f883 203c 	strb.w	r2, [r3, #60]	; 0x3c

    while (huart->TxXferCount > 0U)
 8002998:	e02a      	b.n	80029f0 <HAL_UART_Transmit+0xea>
    {
      if (UART_WaitOnFlagUntilTimeout(huart, UART_FLAG_TXE, RESET, tickstart, Timeout) != HAL_OK)
 800299a:	683b      	ldr	r3, [r7, #0]
 800299c:	9300      	str	r3, [sp, #0]
 800299e:	697b      	ldr	r3, [r7, #20]
 80029a0:	2200      	movs	r2, #0
 80029a2:	2180      	movs	r1, #128	; 0x80
 80029a4:	68f8      	ldr	r0, [r7, #12]
 80029a6:	f000 f840 	bl	8002a2a <UART_WaitOnFlagUntilTimeout>
 80029aa:	4603      	mov	r3, r0
 80029ac:	2b00      	cmp	r3, #0
 80029ae:	d001      	beq.n	80029b4 <HAL_UART_Transmit+0xae>
      {
        return HAL_TIMEOUT;
 80029b0:	2303      	movs	r3, #3
 80029b2:	e036      	b.n	8002a22 <HAL_UART_Transmit+0x11c>
      }
      if (pdata8bits == NULL)
 80029b4:	69fb      	ldr	r3, [r7, #28]
 80029b6:	2b00      	cmp	r3, #0
 80029b8:	d10b      	bne.n	80029d2 <HAL_UART_Transmit+0xcc>
      {
        huart->Instance->DR = (uint16_t)(*pdata16bits & 0x01FFU);
 80029ba:	69bb      	ldr	r3, [r7, #24]
 80029bc:	881b      	ldrh	r3, [r3, #0]
 80029be:	461a      	mov	r2, r3
 80029c0:	68fb      	ldr	r3, [r7, #12]
 80029c2:	681b      	ldr	r3, [r3, #0]
 80029c4:	f3c2 0208 	ubfx	r2, r2, #0, #9
 80029c8:	605a      	str	r2, [r3, #4]
        pdata16bits++;
 80029ca:	69bb      	ldr	r3, [r7, #24]
 80029cc:	3302      	adds	r3, #2
 80029ce:	61bb      	str	r3, [r7, #24]
 80029d0:	e007      	b.n	80029e2 <HAL_UART_Transmit+0xdc>
      }
      else
      {
        huart->Instance->DR = (uint8_t)(*pdata8bits & 0xFFU);
 80029d2:	69fb      	ldr	r3, [r7, #28]
 80029d4:	781a      	ldrb	r2, [r3, #0]
 80029d6:	68fb      	ldr	r3, [r7, #12]
 80029d8:	681b      	ldr	r3, [r3, #0]
 80029da:	605a      	str	r2, [r3, #4]
        pdata8bits++;
 80029dc:	69fb      	ldr	r3, [r7, #28]
 80029de:	3301      	adds	r3, #1
 80029e0:	61fb      	str	r3, [r7, #28]
      }
      huart->TxXferCount--;
 80029e2:	68fb      	ldr	r3, [r7, #12]
 80029e4:	8cdb      	ldrh	r3, [r3, #38]	; 0x26
 80029e6:	b29b      	uxth	r3, r3
 80029e8:	3b01      	subs	r3, #1
 80029ea:	b29a      	uxth	r2, r3
 80029ec:	68fb      	ldr	r3, [r7, #12]
 80029ee:	84da      	strh	r2, [r3, #38]	; 0x26
    while (huart->TxXferCount > 0U)
 80029f0:	68fb      	ldr	r3, [r7, #12]
 80029f2:	8cdb      	ldrh	r3, [r3, #38]	; 0x26
 80029f4:	b29b      	uxth	r3, r3
 80029f6:	2b00      	cmp	r3, #0
 80029f8:	d1cf      	bne.n	800299a <HAL_UART_Transmit+0x94>
    }

    if (UART_WaitOnFlagUntilTimeout(huart, UART_FLAG_TC, RESET, tickstart, Timeout) != HAL_OK)
 80029fa:	683b      	ldr	r3, [r7, #0]
 80029fc:	9300      	str	r3, [sp, #0]
 80029fe:	697b      	ldr	r3, [r7, #20]
 8002a00:	2200      	movs	r2, #0
 8002a02:	2140      	movs	r1, #64	; 0x40
 8002a04:	68f8      	ldr	r0, [r7, #12]
 8002a06:	f000 f810 	bl	8002a2a <UART_WaitOnFlagUntilTimeout>
 8002a0a:	4603      	mov	r3, r0
 8002a0c:	2b00      	cmp	r3, #0
 8002a0e:	d001      	beq.n	8002a14 <HAL_UART_Transmit+0x10e>
    {
      return HAL_TIMEOUT;
 8002a10:	2303      	movs	r3, #3
 8002a12:	e006      	b.n	8002a22 <HAL_UART_Transmit+0x11c>
    }

    /* At end of Tx process, restore huart->gState to Ready */
    huart->gState = HAL_UART_STATE_READY;
 8002a14:	68fb      	ldr	r3, [r7, #12]
 8002a16:	2220      	movs	r2, #32
 8002a18:	f883 203d 	strb.w	r2, [r3, #61]	; 0x3d

    return HAL_OK;
 8002a1c:	2300      	movs	r3, #0
 8002a1e:	e000      	b.n	8002a22 <HAL_UART_Transmit+0x11c>
  }
  else
  {
    return HAL_BUSY;
 8002a20:	2302      	movs	r3, #2
  }
}
 8002a22:	4618      	mov	r0, r3
 8002a24:	3720      	adds	r7, #32
 8002a26:	46bd      	mov	sp, r7
 8002a28:	bd80      	pop	{r7, pc}

08002a2a <UART_WaitOnFlagUntilTimeout>:
  * @param  Timeout Timeout duration
  * @retval HAL status
  */
static HAL_StatusTypeDef UART_WaitOnFlagUntilTimeout(UART_HandleTypeDef *huart, uint32_t Flag, FlagStatus Status,
                                                     uint32_t Tickstart, uint32_t Timeout)
{
 8002a2a:	b580      	push	{r7, lr}
 8002a2c:	b090      	sub	sp, #64	; 0x40
 8002a2e:	af00      	add	r7, sp, #0
 8002a30:	60f8      	str	r0, [r7, #12]
 8002a32:	60b9      	str	r1, [r7, #8]
 8002a34:	603b      	str	r3, [r7, #0]
 8002a36:	4613      	mov	r3, r2
 8002a38:	71fb      	strb	r3, [r7, #7]
  /* Wait until flag is set */
  while ((__HAL_UART_GET_FLAG(huart, Flag) ? SET : RESET) == Status)
 8002a3a:	e050      	b.n	8002ade <UART_WaitOnFlagUntilTimeout+0xb4>
  {
    /* Check for the Timeout */
    if (Timeout != HAL_MAX_DELAY)
 8002a3c:	6cbb      	ldr	r3, [r7, #72]	; 0x48
 8002a3e:	f1b3 3fff 	cmp.w	r3, #4294967295	; 0xffffffff
 8002a42:	d04c      	beq.n	8002ade <UART_WaitOnFlagUntilTimeout+0xb4>
    {
      if ((Timeout == 0U) || ((HAL_GetTick() - Tickstart) > Timeout))
 8002a44:	6cbb      	ldr	r3, [r7, #72]	; 0x48
 8002a46:	2b00      	cmp	r3, #0
 8002a48:	d007      	beq.n	8002a5a <UART_WaitOnFlagUntilTimeout+0x30>
 8002a4a:	f7fe f9bf 	bl	8000dcc <HAL_GetTick>
 8002a4e:	4602      	mov	r2, r0
 8002a50:	683b      	ldr	r3, [r7, #0]
 8002a52:	1ad3      	subs	r3, r2, r3
 8002a54:	6cba      	ldr	r2, [r7, #72]	; 0x48
 8002a56:	429a      	cmp	r2, r3
 8002a58:	d241      	bcs.n	8002ade <UART_WaitOnFlagUntilTimeout+0xb4>
      {
        /* Disable TXE, RXNE, PE and ERR (Frame error, noise error, overrun error) interrupts for the interrupt process */
        ATOMIC_CLEAR_BIT(huart->Instance->CR1, (USART_CR1_RXNEIE | USART_CR1_PEIE | USART_CR1_TXEIE));
 8002a5a:	68fb      	ldr	r3, [r7, #12]
 8002a5c:	681b      	ldr	r3, [r3, #0]
 8002a5e:	330c      	adds	r3, #12
 8002a60:	62bb      	str	r3, [r7, #40]	; 0x28
 */
__STATIC_FORCEINLINE uint32_t __LDREXW(volatile uint32_t *addr)
{
    uint32_t result;

   __ASM volatile ("ldrex %0, %1" : "=r" (result) : "Q" (*addr) );
 8002a62:	6abb      	ldr	r3, [r7, #40]	; 0x28
 8002a64:	e853 3f00 	ldrex	r3, [r3]
 8002a68:	627b      	str	r3, [r7, #36]	; 0x24
   return(result);
 8002a6a:	6a7b      	ldr	r3, [r7, #36]	; 0x24
 8002a6c:	f423 73d0 	bic.w	r3, r3, #416	; 0x1a0
 8002a70:	63fb      	str	r3, [r7, #60]	; 0x3c
 8002a72:	68fb      	ldr	r3, [r7, #12]
 8002a74:	681b      	ldr	r3, [r3, #0]
 8002a76:	330c      	adds	r3, #12
 8002a78:	6bfa      	ldr	r2, [r7, #60]	; 0x3c
 8002a7a:	637a      	str	r2, [r7, #52]	; 0x34
 8002a7c:	633b      	str	r3, [r7, #48]	; 0x30
 */
__STATIC_FORCEINLINE uint32_t __STREXW(uint32_t value, volatile uint32_t *addr)
{
   uint32_t result;

   __ASM volatile ("strex %0, %2, %1" : "=&r" (result), "=Q" (*addr) : "r" (value) );
 8002a7e:	6b39      	ldr	r1, [r7, #48]	; 0x30
 8002a80:	6b7a      	ldr	r2, [r7, #52]	; 0x34
 8002a82:	e841 2300 	strex	r3, r2, [r1]
 8002a86:	62fb      	str	r3, [r7, #44]	; 0x2c
   return(result);
 8002a88:	6afb      	ldr	r3, [r7, #44]	; 0x2c
 8002a8a:	2b00      	cmp	r3, #0
 8002a8c:	d1e5      	bne.n	8002a5a <UART_WaitOnFlagUntilTimeout+0x30>
        ATOMIC_CLEAR_BIT(huart->Instance->CR3, USART_CR3_EIE);
 8002a8e:	68fb      	ldr	r3, [r7, #12]
 8002a90:	681b      	ldr	r3, [r3, #0]
 8002a92:	3314      	adds	r3, #20
 8002a94:	617b      	str	r3, [r7, #20]
   __ASM volatile ("ldrex %0, %1" : "=r" (result) : "Q" (*addr) );
 8002a96:	697b      	ldr	r3, [r7, #20]
 8002a98:	e853 3f00 	ldrex	r3, [r3]
 8002a9c:	613b      	str	r3, [r7, #16]
   return(result);
 8002a9e:	693b      	ldr	r3, [r7, #16]
 8002aa0:	f023 0301 	bic.w	r3, r3, #1
 8002aa4:	63bb      	str	r3, [r7, #56]	; 0x38
 8002aa6:	68fb      	ldr	r3, [r7, #12]
 8002aa8:	681b      	ldr	r3, [r3, #0]
 8002aaa:	3314      	adds	r3, #20
 8002aac:	6bba      	ldr	r2, [r7, #56]	; 0x38
 8002aae:	623a      	str	r2, [r7, #32]
 8002ab0:	61fb      	str	r3, [r7, #28]
   __ASM volatile ("strex %0, %2, %1" : "=&r" (result), "=Q" (*addr) : "r" (value) );
 8002ab2:	69f9      	ldr	r1, [r7, #28]
 8002ab4:	6a3a      	ldr	r2, [r7, #32]
 8002ab6:	e841 2300 	strex	r3, r2, [r1]
 8002aba:	61bb      	str	r3, [r7, #24]
   return(result);
 8002abc:	69bb      	ldr	r3, [r7, #24]
 8002abe:	2b00      	cmp	r3, #0
 8002ac0:	d1e5      	bne.n	8002a8e <UART_WaitOnFlagUntilTimeout+0x64>

        huart->gState  = HAL_UART_STATE_READY;
 8002ac2:	68fb      	ldr	r3, [r7, #12]
 8002ac4:	2220      	movs	r2, #32
 8002ac6:	f883 203d 	strb.w	r2, [r3, #61]	; 0x3d
        huart->RxState = HAL_UART_STATE_READY;
 8002aca:	68fb      	ldr	r3, [r7, #12]
 8002acc:	2220      	movs	r2, #32
 8002ace:	f883 203e 	strb.w	r2, [r3, #62]	; 0x3e

        /* Process Unlocked */
        __HAL_UNLOCK(huart);
 8002ad2:	68fb      	ldr	r3, [r7, #12]
 8002ad4:	2200      	movs	r2, #0
 8002ad6:	f883 203c 	strb.w	r2, [r3, #60]	; 0x3c

        return HAL_TIMEOUT;
 8002ada:	2303      	movs	r3, #3
 8002adc:	e00f      	b.n	8002afe <UART_WaitOnFlagUntilTimeout+0xd4>
  while ((__HAL_UART_GET_FLAG(huart, Flag) ? SET : RESET) == Status)
 8002ade:	68fb      	ldr	r3, [r7, #12]
 8002ae0:	681b      	ldr	r3, [r3, #0]
 8002ae2:	681a      	ldr	r2, [r3, #0]
 8002ae4:	68bb      	ldr	r3, [r7, #8]
 8002ae6:	4013      	ands	r3, r2
 8002ae8:	68ba      	ldr	r2, [r7, #8]
 8002aea:	429a      	cmp	r2, r3
 8002aec:	bf0c      	ite	eq
 8002aee:	2301      	moveq	r3, #1
 8002af0:	2300      	movne	r3, #0
 8002af2:	b2db      	uxtb	r3, r3
 8002af4:	461a      	mov	r2, r3
 8002af6:	79fb      	ldrb	r3, [r7, #7]
 8002af8:	429a      	cmp	r2, r3
 8002afa:	d09f      	beq.n	8002a3c <UART_WaitOnFlagUntilTimeout+0x12>
      }
    }
  }
  return HAL_OK;
 8002afc:	2300      	movs	r3, #0
}
 8002afe:	4618      	mov	r0, r3
 8002b00:	3740      	adds	r7, #64	; 0x40
 8002b02:	46bd      	mov	sp, r7
 8002b04:	bd80      	pop	{r7, pc}
	...

08002b08 <UART_SetConfig>:
  * @param  huart  Pointer to a UART_HandleTypeDef structure that contains
  *                the configuration information for the specified UART module.
  * @retval None
  */
static void UART_SetConfig(UART_HandleTypeDef *huart)
{
 8002b08:	e92d 4fb0 	stmdb	sp!, {r4, r5, r7, r8, r9, sl, fp, lr}
 8002b0c:	b0c0      	sub	sp, #256	; 0x100
 8002b0e:	af00      	add	r7, sp, #0
 8002b10:	f8c7 00f4 	str.w	r0, [r7, #244]	; 0xf4
  assert_param(IS_UART_MODE(huart->Init.Mode));

  /*-------------------------- USART CR2 Configuration -----------------------*/
  /* Configure the UART Stop Bits: Set STOP[13:12] bits
     according to huart->Init.StopBits value */
  MODIFY_REG(huart->Instance->CR2, USART_CR2_STOP, huart->Init.StopBits);
 8002b14:	f8d7 30f4 	ldr.w	r3, [r7, #244]	; 0xf4
 8002b18:	681b      	ldr	r3, [r3, #0]
 8002b1a:	691b      	ldr	r3, [r3, #16]
 8002b1c:	f423 5040 	bic.w	r0, r3, #12288	; 0x3000
 8002b20:	f8d7 30f4 	ldr.w	r3, [r7, #244]	; 0xf4
 8002b24:	68d9      	ldr	r1, [r3, #12]
 8002b26:	f8d7 30f4 	ldr.w	r3, [r7, #244]	; 0xf4
 8002b2a:	681a      	ldr	r2, [r3, #0]
 8002b2c:	ea40 0301 	orr.w	r3, r0, r1
 8002b30:	6113      	str	r3, [r2, #16]
     Set the M bits according to huart->Init.WordLength value
     Set PCE and PS bits according to huart->Init.Parity value
     Set TE and RE bits according to huart->Init.Mode value
     Set OVER8 bit according to huart->Init.OverSampling value */

  tmpreg = (uint32_t)huart->Init.WordLength | huart->Init.Parity | huart->Init.Mode | huart->Init.OverSampling;
 8002b32:	f8d7 30f4 	ldr.w	r3, [r7, #244]	; 0xf4
 8002b36:	689a      	ldr	r2, [r3, #8]
 8002b38:	f8d7 30f4 	ldr.w	r3, [r7, #244]	; 0xf4
 8002b3c:	691b      	ldr	r3, [r3, #16]
 8002b3e:	431a      	orrs	r2, r3
 8002b40:	f8d7 30f4 	ldr.w	r3, [r7, #244]	; 0xf4
 8002b44:	695b      	ldr	r3, [r3, #20]
 8002b46:	431a      	orrs	r2, r3
 8002b48:	f8d7 30f4 	ldr.w	r3, [r7, #244]	; 0xf4
 8002b4c:	69db      	ldr	r3, [r3, #28]
 8002b4e:	4313      	orrs	r3, r2
 8002b50:	f8c7 30f8 	str.w	r3, [r7, #248]	; 0xf8
  MODIFY_REG(huart->Instance->CR1,
 8002b54:	f8d7 30f4 	ldr.w	r3, [r7, #244]	; 0xf4
 8002b58:	681b      	ldr	r3, [r3, #0]
 8002b5a:	68db      	ldr	r3, [r3, #12]
 8002b5c:	f423 4116 	bic.w	r1, r3, #38400	; 0x9600
 8002b60:	f021 010c 	bic.w	r1, r1, #12
 8002b64:	f8d7 30f4 	ldr.w	r3, [r7, #244]	; 0xf4
 8002b68:	681a      	ldr	r2, [r3, #0]
 8002b6a:	f8d7 30f8 	ldr.w	r3, [r7, #248]	; 0xf8
 8002b6e:	430b      	orrs	r3, r1
 8002b70:	60d3      	str	r3, [r2, #12]
             (uint32_t)(USART_CR1_M | USART_CR1_PCE | USART_CR1_PS | USART_CR1_TE | USART_CR1_RE | USART_CR1_OVER8),
             tmpreg);

  /*-------------------------- USART CR3 Configuration -----------------------*/
  /* Configure the UART HFC: Set CTSE and RTSE bits according to huart->Init.HwFlowCtl value */
  MODIFY_REG(huart->Instance->CR3, (USART_CR3_RTSE | USART_CR3_CTSE), huart->Init.HwFlowCtl);
 8002b72:	f8d7 30f4 	ldr.w	r3, [r7, #244]	; 0xf4
 8002b76:	681b      	ldr	r3, [r3, #0]
 8002b78:	695b      	ldr	r3, [r3, #20]
 8002b7a:	f423 7040 	bic.w	r0, r3, #768	; 0x300
 8002b7e:	f8d7 30f4 	ldr.w	r3, [r7, #244]	; 0xf4
 8002b82:	6999      	ldr	r1, [r3, #24]
 8002b84:	f8d7 30f4 	ldr.w	r3, [r7, #244]	; 0xf4
 8002b88:	681a      	ldr	r2, [r3, #0]
 8002b8a:	ea40 0301 	orr.w	r3, r0, r1
 8002b8e:	6153      	str	r3, [r2, #20]
    if ((huart->Instance == USART1) || (huart->Instance == USART6) || (huart->Instance == UART9) || (huart->Instance == UART10))
    {
      pclk = HAL_RCC_GetPCLK2Freq();
    }
#elif defined(USART6)
    if ((huart->Instance == USART1) || (huart->Instance == USART6))
 8002b90:	f8d7 30f4 	ldr.w	r3, [r7, #244]	; 0xf4
 8002b94:	681a      	ldr	r2, [r3, #0]
 8002b96:	4b8f      	ldr	r3, [pc, #572]	; (8002dd4 <UART_SetConfig+0x2cc>)
 8002b98:	429a      	cmp	r2, r3
 8002b9a:	d005      	beq.n	8002ba8 <UART_SetConfig+0xa0>
 8002b9c:	f8d7 30f4 	ldr.w	r3, [r7, #244]	; 0xf4
 8002ba0:	681a      	ldr	r2, [r3, #0]
 8002ba2:	4b8d      	ldr	r3, [pc, #564]	; (8002dd8 <UART_SetConfig+0x2d0>)
 8002ba4:	429a      	cmp	r2, r3
 8002ba6:	d104      	bne.n	8002bb2 <UART_SetConfig+0xaa>
    {
      pclk = HAL_RCC_GetPCLK2Freq();
 8002ba8:	f7ff f8a4 	bl	8001cf4 <HAL_RCC_GetPCLK2Freq>
 8002bac:	f8c7 00fc 	str.w	r0, [r7, #252]	; 0xfc
 8002bb0:	e003      	b.n	8002bba <UART_SetConfig+0xb2>
      pclk = HAL_RCC_GetPCLK2Freq();
    }
#endif /* USART6 */
    else
    {
      pclk = HAL_RCC_GetPCLK1Freq();
 8002bb2:	f7ff f88b 	bl	8001ccc <HAL_RCC_GetPCLK1Freq>
 8002bb6:	f8c7 00fc 	str.w	r0, [r7, #252]	; 0xfc
    }
  /*-------------------------- USART BRR Configuration ---------------------*/
  if (huart->Init.OverSampling == UART_OVERSAMPLING_8)
 8002bba:	f8d7 30f4 	ldr.w	r3, [r7, #244]	; 0xf4
 8002bbe:	69db      	ldr	r3, [r3, #28]
 8002bc0:	f5b3 4f00 	cmp.w	r3, #32768	; 0x8000
 8002bc4:	f040 810c 	bne.w	8002de0 <UART_SetConfig+0x2d8>
  {
    huart->Instance->BRR = UART_BRR_SAMPLING8(pclk, huart->Init.BaudRate);
 8002bc8:	f8d7 30fc 	ldr.w	r3, [r7, #252]	; 0xfc
 8002bcc:	2200      	movs	r2, #0
 8002bce:	f8c7 30e8 	str.w	r3, [r7, #232]	; 0xe8
 8002bd2:	f8c7 20ec 	str.w	r2, [r7, #236]	; 0xec
 8002bd6:	e9d7 453a 	ldrd	r4, r5, [r7, #232]	; 0xe8
 8002bda:	4622      	mov	r2, r4
 8002bdc:	462b      	mov	r3, r5
 8002bde:	1891      	adds	r1, r2, r2
 8002be0:	65b9      	str	r1, [r7, #88]	; 0x58
 8002be2:	415b      	adcs	r3, r3
 8002be4:	65fb      	str	r3, [r7, #92]	; 0x5c
 8002be6:	e9d7 2316 	ldrd	r2, r3, [r7, #88]	; 0x58
 8002bea:	4621      	mov	r1, r4
 8002bec:	eb12 0801 	adds.w	r8, r2, r1
 8002bf0:	4629      	mov	r1, r5
 8002bf2:	eb43 0901 	adc.w	r9, r3, r1
 8002bf6:	f04f 0200 	mov.w	r2, #0
 8002bfa:	f04f 0300 	mov.w	r3, #0
 8002bfe:	ea4f 03c9 	mov.w	r3, r9, lsl #3
 8002c02:	ea43 7358 	orr.w	r3, r3, r8, lsr #29
 8002c06:	ea4f 02c8 	mov.w	r2, r8, lsl #3
 8002c0a:	4690      	mov	r8, r2
 8002c0c:	4699      	mov	r9, r3
 8002c0e:	4623      	mov	r3, r4
 8002c10:	eb18 0303 	adds.w	r3, r8, r3
 8002c14:	f8c7 30e0 	str.w	r3, [r7, #224]	; 0xe0
 8002c18:	462b      	mov	r3, r5
 8002c1a:	eb49 0303 	adc.w	r3, r9, r3
 8002c1e:	f8c7 30e4 	str.w	r3, [r7, #228]	; 0xe4
 8002c22:	f8d7 30f4 	ldr.w	r3, [r7, #244]	; 0xf4
 8002c26:	685b      	ldr	r3, [r3, #4]
 8002c28:	2200      	movs	r2, #0
 8002c2a:	f8c7 30d8 	str.w	r3, [r7, #216]	; 0xd8
 8002c2e:	f8c7 20dc 	str.w	r2, [r7, #220]	; 0xdc
 8002c32:	e9d7 1236 	ldrd	r1, r2, [r7, #216]	; 0xd8
 8002c36:	460b      	mov	r3, r1
 8002c38:	18db      	adds	r3, r3, r3
 8002c3a:	653b      	str	r3, [r7, #80]	; 0x50
 8002c3c:	4613      	mov	r3, r2
 8002c3e:	eb42 0303 	adc.w	r3, r2, r3
 8002c42:	657b      	str	r3, [r7, #84]	; 0x54
 8002c44:	e9d7 2314 	ldrd	r2, r3, [r7, #80]	; 0x50
 8002c48:	e9d7 0138 	ldrd	r0, r1, [r7, #224]	; 0xe0
 8002c4c:	f7fd fb18 	bl	8000280 <__aeabi_uldivmod>
 8002c50:	4602      	mov	r2, r0
 8002c52:	460b      	mov	r3, r1
 8002c54:	4b61      	ldr	r3, [pc, #388]	; (8002ddc <UART_SetConfig+0x2d4>)
 8002c56:	fba3 2302 	umull	r2, r3, r3, r2
 8002c5a:	095b      	lsrs	r3, r3, #5
 8002c5c:	011c      	lsls	r4, r3, #4
 8002c5e:	f8d7 30fc 	ldr.w	r3, [r7, #252]	; 0xfc
 8002c62:	2200      	movs	r2, #0
 8002c64:	f8c7 30d0 	str.w	r3, [r7, #208]	; 0xd0
 8002c68:	f8c7 20d4 	str.w	r2, [r7, #212]	; 0xd4
 8002c6c:	e9d7 8934 	ldrd	r8, r9, [r7, #208]	; 0xd0
 8002c70:	4642      	mov	r2, r8
 8002c72:	464b      	mov	r3, r9
 8002c74:	1891      	adds	r1, r2, r2
 8002c76:	64b9      	str	r1, [r7, #72]	; 0x48
 8002c78:	415b      	adcs	r3, r3
 8002c7a:	64fb      	str	r3, [r7, #76]	; 0x4c
 8002c7c:	e9d7 2312 	ldrd	r2, r3, [r7, #72]	; 0x48
 8002c80:	4641      	mov	r1, r8
 8002c82:	eb12 0a01 	adds.w	sl, r2, r1
 8002c86:	4649      	mov	r1, r9
 8002c88:	eb43 0b01 	adc.w	fp, r3, r1
 8002c8c:	f04f 0200 	mov.w	r2, #0
 8002c90:	f04f 0300 	mov.w	r3, #0
 8002c94:	ea4f 03cb 	mov.w	r3, fp, lsl #3
 8002c98:	ea43 735a 	orr.w	r3, r3, sl, lsr #29
 8002c9c:	ea4f 02ca 	mov.w	r2, sl, lsl #3
 8002ca0:	4692      	mov	sl, r2
 8002ca2:	469b      	mov	fp, r3
 8002ca4:	4643      	mov	r3, r8
 8002ca6:	eb1a 0303 	adds.w	r3, sl, r3
 8002caa:	f8c7 30c8 	str.w	r3, [r7, #200]	; 0xc8
 8002cae:	464b      	mov	r3, r9
 8002cb0:	eb4b 0303 	adc.w	r3, fp, r3
 8002cb4:	f8c7 30cc 	str.w	r3, [r7, #204]	; 0xcc
 8002cb8:	f8d7 30f4 	ldr.w	r3, [r7, #244]	; 0xf4
 8002cbc:	685b      	ldr	r3, [r3, #4]
 8002cbe:	2200      	movs	r2, #0
 8002cc0:	f8c7 30c0 	str.w	r3, [r7, #192]	; 0xc0
 8002cc4:	f8c7 20c4 	str.w	r2, [r7, #196]	; 0xc4
 8002cc8:	e9d7 1230 	ldrd	r1, r2, [r7, #192]	; 0xc0
 8002ccc:	460b      	mov	r3, r1
 8002cce:	18db      	adds	r3, r3, r3
 8002cd0:	643b      	str	r3, [r7, #64]	; 0x40
 8002cd2:	4613      	mov	r3, r2
 8002cd4:	eb42 0303 	adc.w	r3, r2, r3
 8002cd8:	647b      	str	r3, [r7, #68]	; 0x44
 8002cda:	e9d7 2310 	ldrd	r2, r3, [r7, #64]	; 0x40
 8002cde:	e9d7 0132 	ldrd	r0, r1, [r7, #200]	; 0xc8
 8002ce2:	f7fd facd 	bl	8000280 <__aeabi_uldivmod>
 8002ce6:	4602      	mov	r2, r0
 8002ce8:	460b      	mov	r3, r1
 8002cea:	4611      	mov	r1, r2
 8002cec:	4b3b      	ldr	r3, [pc, #236]	; (8002ddc <UART_SetConfig+0x2d4>)
 8002cee:	fba3 2301 	umull	r2, r3, r3, r1
 8002cf2:	095b      	lsrs	r3, r3, #5
 8002cf4:	2264      	movs	r2, #100	; 0x64
 8002cf6:	fb02 f303 	mul.w	r3, r2, r3
 8002cfa:	1acb      	subs	r3, r1, r3
 8002cfc:	00db      	lsls	r3, r3, #3
 8002cfe:	f103 0232 	add.w	r2, r3, #50	; 0x32
 8002d02:	4b36      	ldr	r3, [pc, #216]	; (8002ddc <UART_SetConfig+0x2d4>)
 8002d04:	fba3 2302 	umull	r2, r3, r3, r2
 8002d08:	095b      	lsrs	r3, r3, #5
 8002d0a:	005b      	lsls	r3, r3, #1
 8002d0c:	f403 73f8 	and.w	r3, r3, #496	; 0x1f0
 8002d10:	441c      	add	r4, r3
 8002d12:	f8d7 30fc 	ldr.w	r3, [r7, #252]	; 0xfc
 8002d16:	2200      	movs	r2, #0
 8002d18:	f8c7 30b8 	str.w	r3, [r7, #184]	; 0xb8
 8002d1c:	f8c7 20bc 	str.w	r2, [r7, #188]	; 0xbc
 8002d20:	e9d7 892e 	ldrd	r8, r9, [r7, #184]	; 0xb8
 8002d24:	4642      	mov	r2, r8
 8002d26:	464b      	mov	r3, r9
 8002d28:	1891      	adds	r1, r2, r2
 8002d2a:	63b9      	str	r1, [r7, #56]	; 0x38
 8002d2c:	415b      	adcs	r3, r3
 8002d2e:	63fb      	str	r3, [r7, #60]	; 0x3c
 8002d30:	e9d7 230e 	ldrd	r2, r3, [r7, #56]	; 0x38
 8002d34:	4641      	mov	r1, r8
 8002d36:	1851      	adds	r1, r2, r1
 8002d38:	6339      	str	r1, [r7, #48]	; 0x30
 8002d3a:	4649      	mov	r1, r9
 8002d3c:	414b      	adcs	r3, r1
 8002d3e:	637b      	str	r3, [r7, #52]	; 0x34
 8002d40:	f04f 0200 	mov.w	r2, #0
 8002d44:	f04f 0300 	mov.w	r3, #0
 8002d48:	e9d7 ab0c 	ldrd	sl, fp, [r7, #48]	; 0x30
 8002d4c:	4659      	mov	r1, fp
 8002d4e:	00cb      	lsls	r3, r1, #3
 8002d50:	4651      	mov	r1, sl
 8002d52:	ea43 7351 	orr.w	r3, r3, r1, lsr #29
 8002d56:	4651      	mov	r1, sl
 8002d58:	00ca      	lsls	r2, r1, #3
 8002d5a:	4610      	mov	r0, r2
 8002d5c:	4619      	mov	r1, r3
 8002d5e:	4603      	mov	r3, r0
 8002d60:	4642      	mov	r2, r8
 8002d62:	189b      	adds	r3, r3, r2
 8002d64:	f8c7 30b0 	str.w	r3, [r7, #176]	; 0xb0
 8002d68:	464b      	mov	r3, r9
 8002d6a:	460a      	mov	r2, r1
 8002d6c:	eb42 0303 	adc.w	r3, r2, r3
 8002d70:	f8c7 30b4 	str.w	r3, [r7, #180]	; 0xb4
 8002d74:	f8d7 30f4 	ldr.w	r3, [r7, #244]	; 0xf4
 8002d78:	685b      	ldr	r3, [r3, #4]
 8002d7a:	2200      	movs	r2, #0
 8002d7c:	f8c7 30a8 	str.w	r3, [r7, #168]	; 0xa8
 8002d80:	f8c7 20ac 	str.w	r2, [r7, #172]	; 0xac
 8002d84:	e9d7 122a 	ldrd	r1, r2, [r7, #168]	; 0xa8
 8002d88:	460b      	mov	r3, r1
 8002d8a:	18db      	adds	r3, r3, r3
 8002d8c:	62bb      	str	r3, [r7, #40]	; 0x28
 8002d8e:	4613      	mov	r3, r2
 8002d90:	eb42 0303 	adc.w	r3, r2, r3
 8002d94:	62fb      	str	r3, [r7, #44]	; 0x2c
 8002d96:	e9d7 230a 	ldrd	r2, r3, [r7, #40]	; 0x28
 8002d9a:	e9d7 012c 	ldrd	r0, r1, [r7, #176]	; 0xb0
 8002d9e:	f7fd fa6f 	bl	8000280 <__aeabi_uldivmod>
 8002da2:	4602      	mov	r2, r0
 8002da4:	460b      	mov	r3, r1
 8002da6:	4b0d      	ldr	r3, [pc, #52]	; (8002ddc <UART_SetConfig+0x2d4>)
 8002da8:	fba3 1302 	umull	r1, r3, r3, r2
 8002dac:	095b      	lsrs	r3, r3, #5
 8002dae:	2164      	movs	r1, #100	; 0x64
 8002db0:	fb01 f303 	mul.w	r3, r1, r3
 8002db4:	1ad3      	subs	r3, r2, r3
 8002db6:	00db      	lsls	r3, r3, #3
 8002db8:	3332      	adds	r3, #50	; 0x32
 8002dba:	4a08      	ldr	r2, [pc, #32]	; (8002ddc <UART_SetConfig+0x2d4>)
 8002dbc:	fba2 2303 	umull	r2, r3, r2, r3
 8002dc0:	095b      	lsrs	r3, r3, #5
 8002dc2:	f003 0207 	and.w	r2, r3, #7
 8002dc6:	f8d7 30f4 	ldr.w	r3, [r7, #244]	; 0xf4
 8002dca:	681b      	ldr	r3, [r3, #0]
 8002dcc:	4422      	add	r2, r4
 8002dce:	609a      	str	r2, [r3, #8]
  }
  else
  {
    huart->Instance->BRR = UART_BRR_SAMPLING16(pclk, huart->Init.BaudRate);
  }
}
 8002dd0:	e106      	b.n	8002fe0 <UART_SetConfig+0x4d8>
 8002dd2:	bf00      	nop
 8002dd4:	40011000 	.word	0x40011000
 8002dd8:	40011400 	.word	0x40011400
 8002ddc:	51eb851f 	.word	0x51eb851f
    huart->Instance->BRR = UART_BRR_SAMPLING16(pclk, huart->Init.BaudRate);
 8002de0:	f8d7 30fc 	ldr.w	r3, [r7, #252]	; 0xfc
 8002de4:	2200      	movs	r2, #0
 8002de6:	f8c7 30a0 	str.w	r3, [r7, #160]	; 0xa0
 8002dea:	f8c7 20a4 	str.w	r2, [r7, #164]	; 0xa4
 8002dee:	e9d7 8928 	ldrd	r8, r9, [r7, #160]	; 0xa0
 8002df2:	4642      	mov	r2, r8
 8002df4:	464b      	mov	r3, r9
 8002df6:	1891      	adds	r1, r2, r2
 8002df8:	6239      	str	r1, [r7, #32]
 8002dfa:	415b      	adcs	r3, r3
 8002dfc:	627b      	str	r3, [r7, #36]	; 0x24
 8002dfe:	e9d7 2308 	ldrd	r2, r3, [r7, #32]
 8002e02:	4641      	mov	r1, r8
 8002e04:	1854      	adds	r4, r2, r1
 8002e06:	4649      	mov	r1, r9
 8002e08:	eb43 0501 	adc.w	r5, r3, r1
 8002e0c:	f04f 0200 	mov.w	r2, #0
 8002e10:	f04f 0300 	mov.w	r3, #0
 8002e14:	00eb      	lsls	r3, r5, #3
 8002e16:	ea43 7354 	orr.w	r3, r3, r4, lsr #29
 8002e1a:	00e2      	lsls	r2, r4, #3
 8002e1c:	4614      	mov	r4, r2
 8002e1e:	461d      	mov	r5, r3
 8002e20:	4643      	mov	r3, r8
 8002e22:	18e3      	adds	r3, r4, r3
 8002e24:	f8c7 3098 	str.w	r3, [r7, #152]	; 0x98
 8002e28:	464b      	mov	r3, r9
 8002e2a:	eb45 0303 	adc.w	r3, r5, r3
 8002e2e:	f8c7 309c 	str.w	r3, [r7, #156]	; 0x9c
 8002e32:	f8d7 30f4 	ldr.w	r3, [r7, #244]	; 0xf4
 8002e36:	685b      	ldr	r3, [r3, #4]
 8002e38:	2200      	movs	r2, #0
 8002e3a:	f8c7 3090 	str.w	r3, [r7, #144]	; 0x90
 8002e3e:	f8c7 2094 	str.w	r2, [r7, #148]	; 0x94
 8002e42:	f04f 0200 	mov.w	r2, #0
 8002e46:	f04f 0300 	mov.w	r3, #0
 8002e4a:	e9d7 4524 	ldrd	r4, r5, [r7, #144]	; 0x90
 8002e4e:	4629      	mov	r1, r5
 8002e50:	008b      	lsls	r3, r1, #2
 8002e52:	4621      	mov	r1, r4
 8002e54:	ea43 7391 	orr.w	r3, r3, r1, lsr #30
 8002e58:	4621      	mov	r1, r4
 8002e5a:	008a      	lsls	r2, r1, #2
 8002e5c:	e9d7 0126 	ldrd	r0, r1, [r7, #152]	; 0x98
 8002e60:	f7fd fa0e 	bl	8000280 <__aeabi_uldivmod>
 8002e64:	4602      	mov	r2, r0
 8002e66:	460b      	mov	r3, r1
 8002e68:	4b60      	ldr	r3, [pc, #384]	; (8002fec <UART_SetConfig+0x4e4>)
 8002e6a:	fba3 2302 	umull	r2, r3, r3, r2
 8002e6e:	095b      	lsrs	r3, r3, #5
 8002e70:	011c      	lsls	r4, r3, #4
 8002e72:	f8d7 30fc 	ldr.w	r3, [r7, #252]	; 0xfc
 8002e76:	2200      	movs	r2, #0
 8002e78:	f8c7 3088 	str.w	r3, [r7, #136]	; 0x88
 8002e7c:	f8c7 208c 	str.w	r2, [r7, #140]	; 0x8c
 8002e80:	e9d7 8922 	ldrd	r8, r9, [r7, #136]	; 0x88
 8002e84:	4642      	mov	r2, r8
 8002e86:	464b      	mov	r3, r9
 8002e88:	1891      	adds	r1, r2, r2
 8002e8a:	61b9      	str	r1, [r7, #24]
 8002e8c:	415b      	adcs	r3, r3
 8002e8e:	61fb      	str	r3, [r7, #28]
 8002e90:	e9d7 2306 	ldrd	r2, r3, [r7, #24]
 8002e94:	4641      	mov	r1, r8
 8002e96:	1851      	adds	r1, r2, r1
 8002e98:	6139      	str	r1, [r7, #16]
 8002e9a:	4649      	mov	r1, r9
 8002e9c:	414b      	adcs	r3, r1
 8002e9e:	617b      	str	r3, [r7, #20]
 8002ea0:	f04f 0200 	mov.w	r2, #0
 8002ea4:	f04f 0300 	mov.w	r3, #0
 8002ea8:	e9d7 ab04 	ldrd	sl, fp, [r7, #16]
 8002eac:	4659      	mov	r1, fp
 8002eae:	00cb      	lsls	r3, r1, #3
 8002eb0:	4651      	mov	r1, sl
 8002eb2:	ea43 7351 	orr.w	r3, r3, r1, lsr #29
 8002eb6:	4651      	mov	r1, sl
 8002eb8:	00ca      	lsls	r2, r1, #3
 8002eba:	4610      	mov	r0, r2
 8002ebc:	4619      	mov	r1, r3
 8002ebe:	4603      	mov	r3, r0
 8002ec0:	4642      	mov	r2, r8
 8002ec2:	189b      	adds	r3, r3, r2
 8002ec4:	f8c7 3080 	str.w	r3, [r7, #128]	; 0x80
 8002ec8:	464b      	mov	r3, r9
 8002eca:	460a      	mov	r2, r1
 8002ecc:	eb42 0303 	adc.w	r3, r2, r3
 8002ed0:	f8c7 3084 	str.w	r3, [r7, #132]	; 0x84
 8002ed4:	f8d7 30f4 	ldr.w	r3, [r7, #244]	; 0xf4
 8002ed8:	685b      	ldr	r3, [r3, #4]
 8002eda:	2200      	movs	r2, #0
 8002edc:	67bb      	str	r3, [r7, #120]	; 0x78
 8002ede:	67fa      	str	r2, [r7, #124]	; 0x7c
 8002ee0:	f04f 0200 	mov.w	r2, #0
 8002ee4:	f04f 0300 	mov.w	r3, #0
 8002ee8:	e9d7 891e 	ldrd	r8, r9, [r7, #120]	; 0x78
 8002eec:	4649      	mov	r1, r9
 8002eee:	008b      	lsls	r3, r1, #2
 8002ef0:	4641      	mov	r1, r8
 8002ef2:	ea43 7391 	orr.w	r3, r3, r1, lsr #30
 8002ef6:	4641      	mov	r1, r8
 8002ef8:	008a      	lsls	r2, r1, #2
 8002efa:	e9d7 0120 	ldrd	r0, r1, [r7, #128]	; 0x80
 8002efe:	f7fd f9bf 	bl	8000280 <__aeabi_uldivmod>
 8002f02:	4602      	mov	r2, r0
 8002f04:	460b      	mov	r3, r1
 8002f06:	4611      	mov	r1, r2
 8002f08:	4b38      	ldr	r3, [pc, #224]	; (8002fec <UART_SetConfig+0x4e4>)
 8002f0a:	fba3 2301 	umull	r2, r3, r3, r1
 8002f0e:	095b      	lsrs	r3, r3, #5
 8002f10:	2264      	movs	r2, #100	; 0x64
 8002f12:	fb02 f303 	mul.w	r3, r2, r3
 8002f16:	1acb      	subs	r3, r1, r3
 8002f18:	011b      	lsls	r3, r3, #4
 8002f1a:	3332      	adds	r3, #50	; 0x32
 8002f1c:	4a33      	ldr	r2, [pc, #204]	; (8002fec <UART_SetConfig+0x4e4>)
 8002f1e:	fba2 2303 	umull	r2, r3, r2, r3
 8002f22:	095b      	lsrs	r3, r3, #5
 8002f24:	f003 03f0 	and.w	r3, r3, #240	; 0xf0
 8002f28:	441c      	add	r4, r3
 8002f2a:	f8d7 30fc 	ldr.w	r3, [r7, #252]	; 0xfc
 8002f2e:	2200      	movs	r2, #0
 8002f30:	673b      	str	r3, [r7, #112]	; 0x70
 8002f32:	677a      	str	r2, [r7, #116]	; 0x74
 8002f34:	e9d7 891c 	ldrd	r8, r9, [r7, #112]	; 0x70
 8002f38:	4642      	mov	r2, r8
 8002f3a:	464b      	mov	r3, r9
 8002f3c:	1891      	adds	r1, r2, r2
 8002f3e:	60b9      	str	r1, [r7, #8]
 8002f40:	415b      	adcs	r3, r3
 8002f42:	60fb      	str	r3, [r7, #12]
 8002f44:	e9d7 2302 	ldrd	r2, r3, [r7, #8]
 8002f48:	4641      	mov	r1, r8
 8002f4a:	1851      	adds	r1, r2, r1
 8002f4c:	6039      	str	r1, [r7, #0]
 8002f4e:	4649      	mov	r1, r9
 8002f50:	414b      	adcs	r3, r1
 8002f52:	607b      	str	r3, [r7, #4]
 8002f54:	f04f 0200 	mov.w	r2, #0
 8002f58:	f04f 0300 	mov.w	r3, #0
 8002f5c:	e9d7 ab00 	ldrd	sl, fp, [r7]
 8002f60:	4659      	mov	r1, fp
 8002f62:	00cb      	lsls	r3, r1, #3
 8002f64:	4651      	mov	r1, sl
 8002f66:	ea43 7351 	orr.w	r3, r3, r1, lsr #29
 8002f6a:	4651      	mov	r1, sl
 8002f6c:	00ca      	lsls	r2, r1, #3
 8002f6e:	4610      	mov	r0, r2
 8002f70:	4619      	mov	r1, r3
 8002f72:	4603      	mov	r3, r0
 8002f74:	4642      	mov	r2, r8
 8002f76:	189b      	adds	r3, r3, r2
 8002f78:	66bb      	str	r3, [r7, #104]	; 0x68
 8002f7a:	464b      	mov	r3, r9
 8002f7c:	460a      	mov	r2, r1
 8002f7e:	eb42 0303 	adc.w	r3, r2, r3
 8002f82:	66fb      	str	r3, [r7, #108]	; 0x6c
 8002f84:	f8d7 30f4 	ldr.w	r3, [r7, #244]	; 0xf4
 8002f88:	685b      	ldr	r3, [r3, #4]
 8002f8a:	2200      	movs	r2, #0
 8002f8c:	663b      	str	r3, [r7, #96]	; 0x60
 8002f8e:	667a      	str	r2, [r7, #100]	; 0x64
 8002f90:	f04f 0200 	mov.w	r2, #0
 8002f94:	f04f 0300 	mov.w	r3, #0
 8002f98:	e9d7 8918 	ldrd	r8, r9, [r7, #96]	; 0x60
 8002f9c:	4649      	mov	r1, r9
 8002f9e:	008b      	lsls	r3, r1, #2
 8002fa0:	4641      	mov	r1, r8
 8002fa2:	ea43 7391 	orr.w	r3, r3, r1, lsr #30
 8002fa6:	4641      	mov	r1, r8
 8002fa8:	008a      	lsls	r2, r1, #2
 8002faa:	e9d7 011a 	ldrd	r0, r1, [r7, #104]	; 0x68
 8002fae:	f7fd f967 	bl	8000280 <__aeabi_uldivmod>
 8002fb2:	4602      	mov	r2, r0
 8002fb4:	460b      	mov	r3, r1
 8002fb6:	4b0d      	ldr	r3, [pc, #52]	; (8002fec <UART_SetConfig+0x4e4>)
 8002fb8:	fba3 1302 	umull	r1, r3, r3, r2
 8002fbc:	095b      	lsrs	r3, r3, #5
 8002fbe:	2164      	movs	r1, #100	; 0x64
 8002fc0:	fb01 f303 	mul.w	r3, r1, r3
 8002fc4:	1ad3      	subs	r3, r2, r3
 8002fc6:	011b      	lsls	r3, r3, #4
 8002fc8:	3332      	adds	r3, #50	; 0x32
 8002fca:	4a08      	ldr	r2, [pc, #32]	; (8002fec <UART_SetConfig+0x4e4>)
 8002fcc:	fba2 2303 	umull	r2, r3, r2, r3
 8002fd0:	095b      	lsrs	r3, r3, #5
 8002fd2:	f003 020f 	and.w	r2, r3, #15
 8002fd6:	f8d7 30f4 	ldr.w	r3, [r7, #244]	; 0xf4
 8002fda:	681b      	ldr	r3, [r3, #0]
 8002fdc:	4422      	add	r2, r4
 8002fde:	609a      	str	r2, [r3, #8]
}
 8002fe0:	bf00      	nop
 8002fe2:	f507 7780 	add.w	r7, r7, #256	; 0x100
 8002fe6:	46bd      	mov	sp, r7
 8002fe8:	e8bd 8fb0 	ldmia.w	sp!, {r4, r5, r7, r8, r9, sl, fp, pc}
 8002fec:	51eb851f 	.word	0x51eb851f

08002ff0 <siprintf>:
 8002ff0:	b40e      	push	{r1, r2, r3}
 8002ff2:	b500      	push	{lr}
 8002ff4:	b09c      	sub	sp, #112	; 0x70
 8002ff6:	ab1d      	add	r3, sp, #116	; 0x74
 8002ff8:	9002      	str	r0, [sp, #8]
 8002ffa:	9006      	str	r0, [sp, #24]
 8002ffc:	f06f 4100 	mvn.w	r1, #2147483648	; 0x80000000
 8003000:	4809      	ldr	r0, [pc, #36]	; (8003028 <siprintf+0x38>)
 8003002:	9107      	str	r1, [sp, #28]
 8003004:	9104      	str	r1, [sp, #16]
 8003006:	4909      	ldr	r1, [pc, #36]	; (800302c <siprintf+0x3c>)
 8003008:	f853 2b04 	ldr.w	r2, [r3], #4
 800300c:	9105      	str	r1, [sp, #20]
 800300e:	6800      	ldr	r0, [r0, #0]
 8003010:	9301      	str	r3, [sp, #4]
 8003012:	a902      	add	r1, sp, #8
 8003014:	f000 f992 	bl	800333c <_svfiprintf_r>
 8003018:	9b02      	ldr	r3, [sp, #8]
 800301a:	2200      	movs	r2, #0
 800301c:	701a      	strb	r2, [r3, #0]
 800301e:	b01c      	add	sp, #112	; 0x70
 8003020:	f85d eb04 	ldr.w	lr, [sp], #4
 8003024:	b003      	add	sp, #12
 8003026:	4770      	bx	lr
 8003028:	20000058 	.word	0x20000058
 800302c:	ffff0208 	.word	0xffff0208

08003030 <memset>:
 8003030:	4402      	add	r2, r0
 8003032:	4603      	mov	r3, r0
 8003034:	4293      	cmp	r3, r2
 8003036:	d100      	bne.n	800303a <memset+0xa>
 8003038:	4770      	bx	lr
 800303a:	f803 1b01 	strb.w	r1, [r3], #1
 800303e:	e7f9      	b.n	8003034 <memset+0x4>

08003040 <__errno>:
 8003040:	4b01      	ldr	r3, [pc, #4]	; (8003048 <__errno+0x8>)
 8003042:	6818      	ldr	r0, [r3, #0]
 8003044:	4770      	bx	lr
 8003046:	bf00      	nop
 8003048:	20000058 	.word	0x20000058

0800304c <__libc_init_array>:
 800304c:	b570      	push	{r4, r5, r6, lr}
 800304e:	4d0d      	ldr	r5, [pc, #52]	; (8003084 <__libc_init_array+0x38>)
 8003050:	4c0d      	ldr	r4, [pc, #52]	; (8003088 <__libc_init_array+0x3c>)
 8003052:	1b64      	subs	r4, r4, r5
 8003054:	10a4      	asrs	r4, r4, #2
 8003056:	2600      	movs	r6, #0
 8003058:	42a6      	cmp	r6, r4
 800305a:	d109      	bne.n	8003070 <__libc_init_array+0x24>
 800305c:	4d0b      	ldr	r5, [pc, #44]	; (800308c <__libc_init_array+0x40>)
 800305e:	4c0c      	ldr	r4, [pc, #48]	; (8003090 <__libc_init_array+0x44>)
 8003060:	f000 fc6a 	bl	8003938 <_init>
 8003064:	1b64      	subs	r4, r4, r5
 8003066:	10a4      	asrs	r4, r4, #2
 8003068:	2600      	movs	r6, #0
 800306a:	42a6      	cmp	r6, r4
 800306c:	d105      	bne.n	800307a <__libc_init_array+0x2e>
 800306e:	bd70      	pop	{r4, r5, r6, pc}
 8003070:	f855 3b04 	ldr.w	r3, [r5], #4
 8003074:	4798      	blx	r3
 8003076:	3601      	adds	r6, #1
 8003078:	e7ee      	b.n	8003058 <__libc_init_array+0xc>
 800307a:	f855 3b04 	ldr.w	r3, [r5], #4
 800307e:	4798      	blx	r3
 8003080:	3601      	adds	r6, #1
 8003082:	e7f2      	b.n	800306a <__libc_init_array+0x1e>
 8003084:	080039b8 	.word	0x080039b8
 8003088:	080039b8 	.word	0x080039b8
 800308c:	080039b8 	.word	0x080039b8
 8003090:	080039bc 	.word	0x080039bc

08003094 <__retarget_lock_acquire_recursive>:
 8003094:	4770      	bx	lr

08003096 <__retarget_lock_release_recursive>:
 8003096:	4770      	bx	lr

08003098 <_free_r>:
 8003098:	b537      	push	{r0, r1, r2, r4, r5, lr}
 800309a:	2900      	cmp	r1, #0
 800309c:	d044      	beq.n	8003128 <_free_r+0x90>
 800309e:	f851 3c04 	ldr.w	r3, [r1, #-4]
 80030a2:	9001      	str	r0, [sp, #4]
 80030a4:	2b00      	cmp	r3, #0
 80030a6:	f1a1 0404 	sub.w	r4, r1, #4
 80030aa:	bfb8      	it	lt
 80030ac:	18e4      	addlt	r4, r4, r3
 80030ae:	f000 f8df 	bl	8003270 <__malloc_lock>
 80030b2:	4a1e      	ldr	r2, [pc, #120]	; (800312c <_free_r+0x94>)
 80030b4:	9801      	ldr	r0, [sp, #4]
 80030b6:	6813      	ldr	r3, [r2, #0]
 80030b8:	b933      	cbnz	r3, 80030c8 <_free_r+0x30>
 80030ba:	6063      	str	r3, [r4, #4]
 80030bc:	6014      	str	r4, [r2, #0]
 80030be:	b003      	add	sp, #12
 80030c0:	e8bd 4030 	ldmia.w	sp!, {r4, r5, lr}
 80030c4:	f000 b8da 	b.w	800327c <__malloc_unlock>
 80030c8:	42a3      	cmp	r3, r4
 80030ca:	d908      	bls.n	80030de <_free_r+0x46>
 80030cc:	6825      	ldr	r5, [r4, #0]
 80030ce:	1961      	adds	r1, r4, r5
 80030d0:	428b      	cmp	r3, r1
 80030d2:	bf01      	itttt	eq
 80030d4:	6819      	ldreq	r1, [r3, #0]
 80030d6:	685b      	ldreq	r3, [r3, #4]
 80030d8:	1949      	addeq	r1, r1, r5
 80030da:	6021      	streq	r1, [r4, #0]
 80030dc:	e7ed      	b.n	80030ba <_free_r+0x22>
 80030de:	461a      	mov	r2, r3
 80030e0:	685b      	ldr	r3, [r3, #4]
 80030e2:	b10b      	cbz	r3, 80030e8 <_free_r+0x50>
 80030e4:	42a3      	cmp	r3, r4
 80030e6:	d9fa      	bls.n	80030de <_free_r+0x46>
 80030e8:	6811      	ldr	r1, [r2, #0]
 80030ea:	1855      	adds	r5, r2, r1
 80030ec:	42a5      	cmp	r5, r4
 80030ee:	d10b      	bne.n	8003108 <_free_r+0x70>
 80030f0:	6824      	ldr	r4, [r4, #0]
 80030f2:	4421      	add	r1, r4
 80030f4:	1854      	adds	r4, r2, r1
 80030f6:	42a3      	cmp	r3, r4
 80030f8:	6011      	str	r1, [r2, #0]
 80030fa:	d1e0      	bne.n	80030be <_free_r+0x26>
 80030fc:	681c      	ldr	r4, [r3, #0]
 80030fe:	685b      	ldr	r3, [r3, #4]
 8003100:	6053      	str	r3, [r2, #4]
 8003102:	440c      	add	r4, r1
 8003104:	6014      	str	r4, [r2, #0]
 8003106:	e7da      	b.n	80030be <_free_r+0x26>
 8003108:	d902      	bls.n	8003110 <_free_r+0x78>
 800310a:	230c      	movs	r3, #12
 800310c:	6003      	str	r3, [r0, #0]
 800310e:	e7d6      	b.n	80030be <_free_r+0x26>
 8003110:	6825      	ldr	r5, [r4, #0]
 8003112:	1961      	adds	r1, r4, r5
 8003114:	428b      	cmp	r3, r1
 8003116:	bf04      	itt	eq
 8003118:	6819      	ldreq	r1, [r3, #0]
 800311a:	685b      	ldreq	r3, [r3, #4]
 800311c:	6063      	str	r3, [r4, #4]
 800311e:	bf04      	itt	eq
 8003120:	1949      	addeq	r1, r1, r5
 8003122:	6021      	streq	r1, [r4, #0]
 8003124:	6054      	str	r4, [r2, #4]
 8003126:	e7ca      	b.n	80030be <_free_r+0x26>
 8003128:	b003      	add	sp, #12
 800312a:	bd30      	pop	{r4, r5, pc}
 800312c:	20000260 	.word	0x20000260

08003130 <sbrk_aligned>:
 8003130:	b570      	push	{r4, r5, r6, lr}
 8003132:	4e0e      	ldr	r6, [pc, #56]	; (800316c <sbrk_aligned+0x3c>)
 8003134:	460c      	mov	r4, r1
 8003136:	6831      	ldr	r1, [r6, #0]
 8003138:	4605      	mov	r5, r0
 800313a:	b911      	cbnz	r1, 8003142 <sbrk_aligned+0x12>
 800313c:	f000 fba6 	bl	800388c <_sbrk_r>
 8003140:	6030      	str	r0, [r6, #0]
 8003142:	4621      	mov	r1, r4
 8003144:	4628      	mov	r0, r5
 8003146:	f000 fba1 	bl	800388c <_sbrk_r>
 800314a:	1c43      	adds	r3, r0, #1
 800314c:	d00a      	beq.n	8003164 <sbrk_aligned+0x34>
 800314e:	1cc4      	adds	r4, r0, #3
 8003150:	f024 0403 	bic.w	r4, r4, #3
 8003154:	42a0      	cmp	r0, r4
 8003156:	d007      	beq.n	8003168 <sbrk_aligned+0x38>
 8003158:	1a21      	subs	r1, r4, r0
 800315a:	4628      	mov	r0, r5
 800315c:	f000 fb96 	bl	800388c <_sbrk_r>
 8003160:	3001      	adds	r0, #1
 8003162:	d101      	bne.n	8003168 <sbrk_aligned+0x38>
 8003164:	f04f 34ff 	mov.w	r4, #4294967295	; 0xffffffff
 8003168:	4620      	mov	r0, r4
 800316a:	bd70      	pop	{r4, r5, r6, pc}
 800316c:	20000264 	.word	0x20000264

08003170 <_malloc_r>:
 8003170:	e92d 43f8 	stmdb	sp!, {r3, r4, r5, r6, r7, r8, r9, lr}
 8003174:	1ccd      	adds	r5, r1, #3
 8003176:	f025 0503 	bic.w	r5, r5, #3
 800317a:	3508      	adds	r5, #8
 800317c:	2d0c      	cmp	r5, #12
 800317e:	bf38      	it	cc
 8003180:	250c      	movcc	r5, #12
 8003182:	2d00      	cmp	r5, #0
 8003184:	4607      	mov	r7, r0
 8003186:	db01      	blt.n	800318c <_malloc_r+0x1c>
 8003188:	42a9      	cmp	r1, r5
 800318a:	d905      	bls.n	8003198 <_malloc_r+0x28>
 800318c:	230c      	movs	r3, #12
 800318e:	603b      	str	r3, [r7, #0]
 8003190:	2600      	movs	r6, #0
 8003192:	4630      	mov	r0, r6
 8003194:	e8bd 83f8 	ldmia.w	sp!, {r3, r4, r5, r6, r7, r8, r9, pc}
 8003198:	f8df 80d0 	ldr.w	r8, [pc, #208]	; 800326c <_malloc_r+0xfc>
 800319c:	f000 f868 	bl	8003270 <__malloc_lock>
 80031a0:	f8d8 3000 	ldr.w	r3, [r8]
 80031a4:	461c      	mov	r4, r3
 80031a6:	bb5c      	cbnz	r4, 8003200 <_malloc_r+0x90>
 80031a8:	4629      	mov	r1, r5
 80031aa:	4638      	mov	r0, r7
 80031ac:	f7ff ffc0 	bl	8003130 <sbrk_aligned>
 80031b0:	1c43      	adds	r3, r0, #1
 80031b2:	4604      	mov	r4, r0
 80031b4:	d155      	bne.n	8003262 <_malloc_r+0xf2>
 80031b6:	f8d8 4000 	ldr.w	r4, [r8]
 80031ba:	4626      	mov	r6, r4
 80031bc:	2e00      	cmp	r6, #0
 80031be:	d145      	bne.n	800324c <_malloc_r+0xdc>
 80031c0:	2c00      	cmp	r4, #0
 80031c2:	d048      	beq.n	8003256 <_malloc_r+0xe6>
 80031c4:	6823      	ldr	r3, [r4, #0]
 80031c6:	4631      	mov	r1, r6
 80031c8:	4638      	mov	r0, r7
 80031ca:	eb04 0903 	add.w	r9, r4, r3
 80031ce:	f000 fb5d 	bl	800388c <_sbrk_r>
 80031d2:	4581      	cmp	r9, r0
 80031d4:	d13f      	bne.n	8003256 <_malloc_r+0xe6>
 80031d6:	6821      	ldr	r1, [r4, #0]
 80031d8:	1a6d      	subs	r5, r5, r1
 80031da:	4629      	mov	r1, r5
 80031dc:	4638      	mov	r0, r7
 80031de:	f7ff ffa7 	bl	8003130 <sbrk_aligned>
 80031e2:	3001      	adds	r0, #1
 80031e4:	d037      	beq.n	8003256 <_malloc_r+0xe6>
 80031e6:	6823      	ldr	r3, [r4, #0]
 80031e8:	442b      	add	r3, r5
 80031ea:	6023      	str	r3, [r4, #0]
 80031ec:	f8d8 3000 	ldr.w	r3, [r8]
 80031f0:	2b00      	cmp	r3, #0
 80031f2:	d038      	beq.n	8003266 <_malloc_r+0xf6>
 80031f4:	685a      	ldr	r2, [r3, #4]
 80031f6:	42a2      	cmp	r2, r4
 80031f8:	d12b      	bne.n	8003252 <_malloc_r+0xe2>
 80031fa:	2200      	movs	r2, #0
 80031fc:	605a      	str	r2, [r3, #4]
 80031fe:	e00f      	b.n	8003220 <_malloc_r+0xb0>
 8003200:	6822      	ldr	r2, [r4, #0]
 8003202:	1b52      	subs	r2, r2, r5
 8003204:	d41f      	bmi.n	8003246 <_malloc_r+0xd6>
 8003206:	2a0b      	cmp	r2, #11
 8003208:	d917      	bls.n	800323a <_malloc_r+0xca>
 800320a:	1961      	adds	r1, r4, r5
 800320c:	42a3      	cmp	r3, r4
 800320e:	6025      	str	r5, [r4, #0]
 8003210:	bf18      	it	ne
 8003212:	6059      	strne	r1, [r3, #4]
 8003214:	6863      	ldr	r3, [r4, #4]
 8003216:	bf08      	it	eq
 8003218:	f8c8 1000 	streq.w	r1, [r8]
 800321c:	5162      	str	r2, [r4, r5]
 800321e:	604b      	str	r3, [r1, #4]
 8003220:	4638      	mov	r0, r7
 8003222:	f104 060b 	add.w	r6, r4, #11
 8003226:	f000 f829 	bl	800327c <__malloc_unlock>
 800322a:	f026 0607 	bic.w	r6, r6, #7
 800322e:	1d23      	adds	r3, r4, #4
 8003230:	1af2      	subs	r2, r6, r3
 8003232:	d0ae      	beq.n	8003192 <_malloc_r+0x22>
 8003234:	1b9b      	subs	r3, r3, r6
 8003236:	50a3      	str	r3, [r4, r2]
 8003238:	e7ab      	b.n	8003192 <_malloc_r+0x22>
 800323a:	42a3      	cmp	r3, r4
 800323c:	6862      	ldr	r2, [r4, #4]
 800323e:	d1dd      	bne.n	80031fc <_malloc_r+0x8c>
 8003240:	f8c8 2000 	str.w	r2, [r8]
 8003244:	e7ec      	b.n	8003220 <_malloc_r+0xb0>
 8003246:	4623      	mov	r3, r4
 8003248:	6864      	ldr	r4, [r4, #4]
 800324a:	e7ac      	b.n	80031a6 <_malloc_r+0x36>
 800324c:	4634      	mov	r4, r6
 800324e:	6876      	ldr	r6, [r6, #4]
 8003250:	e7b4      	b.n	80031bc <_malloc_r+0x4c>
 8003252:	4613      	mov	r3, r2
 8003254:	e7cc      	b.n	80031f0 <_malloc_r+0x80>
 8003256:	230c      	movs	r3, #12
 8003258:	603b      	str	r3, [r7, #0]
 800325a:	4638      	mov	r0, r7
 800325c:	f000 f80e 	bl	800327c <__malloc_unlock>
 8003260:	e797      	b.n	8003192 <_malloc_r+0x22>
 8003262:	6025      	str	r5, [r4, #0]
 8003264:	e7dc      	b.n	8003220 <_malloc_r+0xb0>
 8003266:	605b      	str	r3, [r3, #4]
 8003268:	deff      	udf	#255	; 0xff
 800326a:	bf00      	nop
 800326c:	20000260 	.word	0x20000260

08003270 <__malloc_lock>:
 8003270:	4801      	ldr	r0, [pc, #4]	; (8003278 <__malloc_lock+0x8>)
 8003272:	f7ff bf0f 	b.w	8003094 <__retarget_lock_acquire_recursive>
 8003276:	bf00      	nop
 8003278:	2000025c 	.word	0x2000025c

0800327c <__malloc_unlock>:
 800327c:	4801      	ldr	r0, [pc, #4]	; (8003284 <__malloc_unlock+0x8>)
 800327e:	f7ff bf0a 	b.w	8003096 <__retarget_lock_release_recursive>
 8003282:	bf00      	nop
 8003284:	2000025c 	.word	0x2000025c

08003288 <__ssputs_r>:
 8003288:	e92d 47f0 	stmdb	sp!, {r4, r5, r6, r7, r8, r9, sl, lr}
 800328c:	688e      	ldr	r6, [r1, #8]
 800328e:	461f      	mov	r7, r3
 8003290:	42be      	cmp	r6, r7
 8003292:	680b      	ldr	r3, [r1, #0]
 8003294:	4682      	mov	sl, r0
 8003296:	460c      	mov	r4, r1
 8003298:	4690      	mov	r8, r2
 800329a:	d82c      	bhi.n	80032f6 <__ssputs_r+0x6e>
 800329c:	898a      	ldrh	r2, [r1, #12]
 800329e:	f412 6f90 	tst.w	r2, #1152	; 0x480
 80032a2:	d026      	beq.n	80032f2 <__ssputs_r+0x6a>
 80032a4:	6965      	ldr	r5, [r4, #20]
 80032a6:	6909      	ldr	r1, [r1, #16]
 80032a8:	eb05 0545 	add.w	r5, r5, r5, lsl #1
 80032ac:	eba3 0901 	sub.w	r9, r3, r1
 80032b0:	eb05 75d5 	add.w	r5, r5, r5, lsr #31
 80032b4:	1c7b      	adds	r3, r7, #1
 80032b6:	444b      	add	r3, r9
 80032b8:	106d      	asrs	r5, r5, #1
 80032ba:	429d      	cmp	r5, r3
 80032bc:	bf38      	it	cc
 80032be:	461d      	movcc	r5, r3
 80032c0:	0553      	lsls	r3, r2, #21
 80032c2:	d527      	bpl.n	8003314 <__ssputs_r+0x8c>
 80032c4:	4629      	mov	r1, r5
 80032c6:	f7ff ff53 	bl	8003170 <_malloc_r>
 80032ca:	4606      	mov	r6, r0
 80032cc:	b360      	cbz	r0, 8003328 <__ssputs_r+0xa0>
 80032ce:	6921      	ldr	r1, [r4, #16]
 80032d0:	464a      	mov	r2, r9
 80032d2:	f000 faeb 	bl	80038ac <memcpy>
 80032d6:	89a3      	ldrh	r3, [r4, #12]
 80032d8:	f423 6390 	bic.w	r3, r3, #1152	; 0x480
 80032dc:	f043 0380 	orr.w	r3, r3, #128	; 0x80
 80032e0:	81a3      	strh	r3, [r4, #12]
 80032e2:	6126      	str	r6, [r4, #16]
 80032e4:	6165      	str	r5, [r4, #20]
 80032e6:	444e      	add	r6, r9
 80032e8:	eba5 0509 	sub.w	r5, r5, r9
 80032ec:	6026      	str	r6, [r4, #0]
 80032ee:	60a5      	str	r5, [r4, #8]
 80032f0:	463e      	mov	r6, r7
 80032f2:	42be      	cmp	r6, r7
 80032f4:	d900      	bls.n	80032f8 <__ssputs_r+0x70>
 80032f6:	463e      	mov	r6, r7
 80032f8:	6820      	ldr	r0, [r4, #0]
 80032fa:	4632      	mov	r2, r6
 80032fc:	4641      	mov	r1, r8
 80032fe:	f000 faab 	bl	8003858 <memmove>
 8003302:	68a3      	ldr	r3, [r4, #8]
 8003304:	1b9b      	subs	r3, r3, r6
 8003306:	60a3      	str	r3, [r4, #8]
 8003308:	6823      	ldr	r3, [r4, #0]
 800330a:	4433      	add	r3, r6
 800330c:	6023      	str	r3, [r4, #0]
 800330e:	2000      	movs	r0, #0
 8003310:	e8bd 87f0 	ldmia.w	sp!, {r4, r5, r6, r7, r8, r9, sl, pc}
 8003314:	462a      	mov	r2, r5
 8003316:	f000 fad7 	bl	80038c8 <_realloc_r>
 800331a:	4606      	mov	r6, r0
 800331c:	2800      	cmp	r0, #0
 800331e:	d1e0      	bne.n	80032e2 <__ssputs_r+0x5a>
 8003320:	6921      	ldr	r1, [r4, #16]
 8003322:	4650      	mov	r0, sl
 8003324:	f7ff feb8 	bl	8003098 <_free_r>
 8003328:	230c      	movs	r3, #12
 800332a:	f8ca 3000 	str.w	r3, [sl]
 800332e:	89a3      	ldrh	r3, [r4, #12]
 8003330:	f043 0340 	orr.w	r3, r3, #64	; 0x40
 8003334:	81a3      	strh	r3, [r4, #12]
 8003336:	f04f 30ff 	mov.w	r0, #4294967295	; 0xffffffff
 800333a:	e7e9      	b.n	8003310 <__ssputs_r+0x88>

0800333c <_svfiprintf_r>:
 800333c:	e92d 4ff0 	stmdb	sp!, {r4, r5, r6, r7, r8, r9, sl, fp, lr}
 8003340:	4698      	mov	r8, r3
 8003342:	898b      	ldrh	r3, [r1, #12]
 8003344:	061b      	lsls	r3, r3, #24
 8003346:	b09d      	sub	sp, #116	; 0x74
 8003348:	4607      	mov	r7, r0
 800334a:	460d      	mov	r5, r1
 800334c:	4614      	mov	r4, r2
 800334e:	d50e      	bpl.n	800336e <_svfiprintf_r+0x32>
 8003350:	690b      	ldr	r3, [r1, #16]
 8003352:	b963      	cbnz	r3, 800336e <_svfiprintf_r+0x32>
 8003354:	2140      	movs	r1, #64	; 0x40
 8003356:	f7ff ff0b 	bl	8003170 <_malloc_r>
 800335a:	6028      	str	r0, [r5, #0]
 800335c:	6128      	str	r0, [r5, #16]
 800335e:	b920      	cbnz	r0, 800336a <_svfiprintf_r+0x2e>
 8003360:	230c      	movs	r3, #12
 8003362:	603b      	str	r3, [r7, #0]
 8003364:	f04f 30ff 	mov.w	r0, #4294967295	; 0xffffffff
 8003368:	e0d0      	b.n	800350c <_svfiprintf_r+0x1d0>
 800336a:	2340      	movs	r3, #64	; 0x40
 800336c:	616b      	str	r3, [r5, #20]
 800336e:	2300      	movs	r3, #0
 8003370:	9309      	str	r3, [sp, #36]	; 0x24
 8003372:	2320      	movs	r3, #32
 8003374:	f88d 3029 	strb.w	r3, [sp, #41]	; 0x29
 8003378:	f8cd 800c 	str.w	r8, [sp, #12]
 800337c:	2330      	movs	r3, #48	; 0x30
 800337e:	f8df 81a4 	ldr.w	r8, [pc, #420]	; 8003524 <_svfiprintf_r+0x1e8>
 8003382:	f88d 302a 	strb.w	r3, [sp, #42]	; 0x2a
 8003386:	f04f 0901 	mov.w	r9, #1
 800338a:	4623      	mov	r3, r4
 800338c:	469a      	mov	sl, r3
 800338e:	f813 2b01 	ldrb.w	r2, [r3], #1
 8003392:	b10a      	cbz	r2, 8003398 <_svfiprintf_r+0x5c>
 8003394:	2a25      	cmp	r2, #37	; 0x25
 8003396:	d1f9      	bne.n	800338c <_svfiprintf_r+0x50>
 8003398:	ebba 0b04 	subs.w	fp, sl, r4
 800339c:	d00b      	beq.n	80033b6 <_svfiprintf_r+0x7a>
 800339e:	465b      	mov	r3, fp
 80033a0:	4622      	mov	r2, r4
 80033a2:	4629      	mov	r1, r5
 80033a4:	4638      	mov	r0, r7
 80033a6:	f7ff ff6f 	bl	8003288 <__ssputs_r>
 80033aa:	3001      	adds	r0, #1
 80033ac:	f000 80a9 	beq.w	8003502 <_svfiprintf_r+0x1c6>
 80033b0:	9a09      	ldr	r2, [sp, #36]	; 0x24
 80033b2:	445a      	add	r2, fp
 80033b4:	9209      	str	r2, [sp, #36]	; 0x24
 80033b6:	f89a 3000 	ldrb.w	r3, [sl]
 80033ba:	2b00      	cmp	r3, #0
 80033bc:	f000 80a1 	beq.w	8003502 <_svfiprintf_r+0x1c6>
 80033c0:	2300      	movs	r3, #0
 80033c2:	f04f 32ff 	mov.w	r2, #4294967295	; 0xffffffff
 80033c6:	e9cd 2305 	strd	r2, r3, [sp, #20]
 80033ca:	f10a 0a01 	add.w	sl, sl, #1
 80033ce:	9304      	str	r3, [sp, #16]
 80033d0:	9307      	str	r3, [sp, #28]
 80033d2:	f88d 3053 	strb.w	r3, [sp, #83]	; 0x53
 80033d6:	931a      	str	r3, [sp, #104]	; 0x68
 80033d8:	4654      	mov	r4, sl
 80033da:	2205      	movs	r2, #5
 80033dc:	f814 1b01 	ldrb.w	r1, [r4], #1
 80033e0:	4850      	ldr	r0, [pc, #320]	; (8003524 <_svfiprintf_r+0x1e8>)
 80033e2:	f7fc fefd 	bl	80001e0 <memchr>
 80033e6:	9a04      	ldr	r2, [sp, #16]
 80033e8:	b9d8      	cbnz	r0, 8003422 <_svfiprintf_r+0xe6>
 80033ea:	06d0      	lsls	r0, r2, #27
 80033ec:	bf44      	itt	mi
 80033ee:	2320      	movmi	r3, #32
 80033f0:	f88d 3053 	strbmi.w	r3, [sp, #83]	; 0x53
 80033f4:	0711      	lsls	r1, r2, #28
 80033f6:	bf44      	itt	mi
 80033f8:	232b      	movmi	r3, #43	; 0x2b
 80033fa:	f88d 3053 	strbmi.w	r3, [sp, #83]	; 0x53
 80033fe:	f89a 3000 	ldrb.w	r3, [sl]
 8003402:	2b2a      	cmp	r3, #42	; 0x2a
 8003404:	d015      	beq.n	8003432 <_svfiprintf_r+0xf6>
 8003406:	9a07      	ldr	r2, [sp, #28]
 8003408:	4654      	mov	r4, sl
 800340a:	2000      	movs	r0, #0
 800340c:	f04f 0c0a 	mov.w	ip, #10
 8003410:	4621      	mov	r1, r4
 8003412:	f811 3b01 	ldrb.w	r3, [r1], #1
 8003416:	3b30      	subs	r3, #48	; 0x30
 8003418:	2b09      	cmp	r3, #9
 800341a:	d94d      	bls.n	80034b8 <_svfiprintf_r+0x17c>
 800341c:	b1b0      	cbz	r0, 800344c <_svfiprintf_r+0x110>
 800341e:	9207      	str	r2, [sp, #28]
 8003420:	e014      	b.n	800344c <_svfiprintf_r+0x110>
 8003422:	eba0 0308 	sub.w	r3, r0, r8
 8003426:	fa09 f303 	lsl.w	r3, r9, r3
 800342a:	4313      	orrs	r3, r2
 800342c:	9304      	str	r3, [sp, #16]
 800342e:	46a2      	mov	sl, r4
 8003430:	e7d2      	b.n	80033d8 <_svfiprintf_r+0x9c>
 8003432:	9b03      	ldr	r3, [sp, #12]
 8003434:	1d19      	adds	r1, r3, #4
 8003436:	681b      	ldr	r3, [r3, #0]
 8003438:	9103      	str	r1, [sp, #12]
 800343a:	2b00      	cmp	r3, #0
 800343c:	bfbb      	ittet	lt
 800343e:	425b      	neglt	r3, r3
 8003440:	f042 0202 	orrlt.w	r2, r2, #2
 8003444:	9307      	strge	r3, [sp, #28]
 8003446:	9307      	strlt	r3, [sp, #28]
 8003448:	bfb8      	it	lt
 800344a:	9204      	strlt	r2, [sp, #16]
 800344c:	7823      	ldrb	r3, [r4, #0]
 800344e:	2b2e      	cmp	r3, #46	; 0x2e
 8003450:	d10c      	bne.n	800346c <_svfiprintf_r+0x130>
 8003452:	7863      	ldrb	r3, [r4, #1]
 8003454:	2b2a      	cmp	r3, #42	; 0x2a
 8003456:	d134      	bne.n	80034c2 <_svfiprintf_r+0x186>
 8003458:	9b03      	ldr	r3, [sp, #12]
 800345a:	1d1a      	adds	r2, r3, #4
 800345c:	681b      	ldr	r3, [r3, #0]
 800345e:	9203      	str	r2, [sp, #12]
 8003460:	2b00      	cmp	r3, #0
 8003462:	bfb8      	it	lt
 8003464:	f04f 33ff 	movlt.w	r3, #4294967295	; 0xffffffff
 8003468:	3402      	adds	r4, #2
 800346a:	9305      	str	r3, [sp, #20]
 800346c:	f8df a0c4 	ldr.w	sl, [pc, #196]	; 8003534 <_svfiprintf_r+0x1f8>
 8003470:	7821      	ldrb	r1, [r4, #0]
 8003472:	2203      	movs	r2, #3
 8003474:	4650      	mov	r0, sl
 8003476:	f7fc feb3 	bl	80001e0 <memchr>
 800347a:	b138      	cbz	r0, 800348c <_svfiprintf_r+0x150>
 800347c:	9b04      	ldr	r3, [sp, #16]
 800347e:	eba0 000a 	sub.w	r0, r0, sl
 8003482:	2240      	movs	r2, #64	; 0x40
 8003484:	4082      	lsls	r2, r0
 8003486:	4313      	orrs	r3, r2
 8003488:	3401      	adds	r4, #1
 800348a:	9304      	str	r3, [sp, #16]
 800348c:	f814 1b01 	ldrb.w	r1, [r4], #1
 8003490:	4825      	ldr	r0, [pc, #148]	; (8003528 <_svfiprintf_r+0x1ec>)
 8003492:	f88d 1028 	strb.w	r1, [sp, #40]	; 0x28
 8003496:	2206      	movs	r2, #6
 8003498:	f7fc fea2 	bl	80001e0 <memchr>
 800349c:	2800      	cmp	r0, #0
 800349e:	d038      	beq.n	8003512 <_svfiprintf_r+0x1d6>
 80034a0:	4b22      	ldr	r3, [pc, #136]	; (800352c <_svfiprintf_r+0x1f0>)
 80034a2:	bb1b      	cbnz	r3, 80034ec <_svfiprintf_r+0x1b0>
 80034a4:	9b03      	ldr	r3, [sp, #12]
 80034a6:	3307      	adds	r3, #7
 80034a8:	f023 0307 	bic.w	r3, r3, #7
 80034ac:	3308      	adds	r3, #8
 80034ae:	9303      	str	r3, [sp, #12]
 80034b0:	9b09      	ldr	r3, [sp, #36]	; 0x24
 80034b2:	4433      	add	r3, r6
 80034b4:	9309      	str	r3, [sp, #36]	; 0x24
 80034b6:	e768      	b.n	800338a <_svfiprintf_r+0x4e>
 80034b8:	fb0c 3202 	mla	r2, ip, r2, r3
 80034bc:	460c      	mov	r4, r1
 80034be:	2001      	movs	r0, #1
 80034c0:	e7a6      	b.n	8003410 <_svfiprintf_r+0xd4>
 80034c2:	2300      	movs	r3, #0
 80034c4:	3401      	adds	r4, #1
 80034c6:	9305      	str	r3, [sp, #20]
 80034c8:	4619      	mov	r1, r3
 80034ca:	f04f 0c0a 	mov.w	ip, #10
 80034ce:	4620      	mov	r0, r4
 80034d0:	f810 2b01 	ldrb.w	r2, [r0], #1
 80034d4:	3a30      	subs	r2, #48	; 0x30
 80034d6:	2a09      	cmp	r2, #9
 80034d8:	d903      	bls.n	80034e2 <_svfiprintf_r+0x1a6>
 80034da:	2b00      	cmp	r3, #0
 80034dc:	d0c6      	beq.n	800346c <_svfiprintf_r+0x130>
 80034de:	9105      	str	r1, [sp, #20]
 80034e0:	e7c4      	b.n	800346c <_svfiprintf_r+0x130>
 80034e2:	fb0c 2101 	mla	r1, ip, r1, r2
 80034e6:	4604      	mov	r4, r0
 80034e8:	2301      	movs	r3, #1
 80034ea:	e7f0      	b.n	80034ce <_svfiprintf_r+0x192>
 80034ec:	ab03      	add	r3, sp, #12
 80034ee:	9300      	str	r3, [sp, #0]
 80034f0:	462a      	mov	r2, r5
 80034f2:	4b0f      	ldr	r3, [pc, #60]	; (8003530 <_svfiprintf_r+0x1f4>)
 80034f4:	a904      	add	r1, sp, #16
 80034f6:	4638      	mov	r0, r7
 80034f8:	f3af 8000 	nop.w
 80034fc:	1c42      	adds	r2, r0, #1
 80034fe:	4606      	mov	r6, r0
 8003500:	d1d6      	bne.n	80034b0 <_svfiprintf_r+0x174>
 8003502:	89ab      	ldrh	r3, [r5, #12]
 8003504:	065b      	lsls	r3, r3, #25
 8003506:	f53f af2d 	bmi.w	8003364 <_svfiprintf_r+0x28>
 800350a:	9809      	ldr	r0, [sp, #36]	; 0x24
 800350c:	b01d      	add	sp, #116	; 0x74
 800350e:	e8bd 8ff0 	ldmia.w	sp!, {r4, r5, r6, r7, r8, r9, sl, fp, pc}
 8003512:	ab03      	add	r3, sp, #12
 8003514:	9300      	str	r3, [sp, #0]
 8003516:	462a      	mov	r2, r5
 8003518:	4b05      	ldr	r3, [pc, #20]	; (8003530 <_svfiprintf_r+0x1f4>)
 800351a:	a904      	add	r1, sp, #16
 800351c:	4638      	mov	r0, r7
 800351e:	f000 f879 	bl	8003614 <_printf_i>
 8003522:	e7eb      	b.n	80034fc <_svfiprintf_r+0x1c0>
 8003524:	0800397c 	.word	0x0800397c
 8003528:	08003986 	.word	0x08003986
 800352c:	00000000 	.word	0x00000000
 8003530:	08003289 	.word	0x08003289
 8003534:	08003982 	.word	0x08003982

08003538 <_printf_common>:
 8003538:	e92d 47f0 	stmdb	sp!, {r4, r5, r6, r7, r8, r9, sl, lr}
 800353c:	4616      	mov	r6, r2
 800353e:	4699      	mov	r9, r3
 8003540:	688a      	ldr	r2, [r1, #8]
 8003542:	690b      	ldr	r3, [r1, #16]
 8003544:	f8dd 8020 	ldr.w	r8, [sp, #32]
 8003548:	4293      	cmp	r3, r2
 800354a:	bfb8      	it	lt
 800354c:	4613      	movlt	r3, r2
 800354e:	6033      	str	r3, [r6, #0]
 8003550:	f891 2043 	ldrb.w	r2, [r1, #67]	; 0x43
 8003554:	4607      	mov	r7, r0
 8003556:	460c      	mov	r4, r1
 8003558:	b10a      	cbz	r2, 800355e <_printf_common+0x26>
 800355a:	3301      	adds	r3, #1
 800355c:	6033      	str	r3, [r6, #0]
 800355e:	6823      	ldr	r3, [r4, #0]
 8003560:	0699      	lsls	r1, r3, #26
 8003562:	bf42      	ittt	mi
 8003564:	6833      	ldrmi	r3, [r6, #0]
 8003566:	3302      	addmi	r3, #2
 8003568:	6033      	strmi	r3, [r6, #0]
 800356a:	6825      	ldr	r5, [r4, #0]
 800356c:	f015 0506 	ands.w	r5, r5, #6
 8003570:	d106      	bne.n	8003580 <_printf_common+0x48>
 8003572:	f104 0a19 	add.w	sl, r4, #25
 8003576:	68e3      	ldr	r3, [r4, #12]
 8003578:	6832      	ldr	r2, [r6, #0]
 800357a:	1a9b      	subs	r3, r3, r2
 800357c:	42ab      	cmp	r3, r5
 800357e:	dc26      	bgt.n	80035ce <_printf_common+0x96>
 8003580:	f894 2043 	ldrb.w	r2, [r4, #67]	; 0x43
 8003584:	1e13      	subs	r3, r2, #0
 8003586:	6822      	ldr	r2, [r4, #0]
 8003588:	bf18      	it	ne
 800358a:	2301      	movne	r3, #1
 800358c:	0692      	lsls	r2, r2, #26
 800358e:	d42b      	bmi.n	80035e8 <_printf_common+0xb0>
 8003590:	f104 0243 	add.w	r2, r4, #67	; 0x43
 8003594:	4649      	mov	r1, r9
 8003596:	4638      	mov	r0, r7
 8003598:	47c0      	blx	r8
 800359a:	3001      	adds	r0, #1
 800359c:	d01e      	beq.n	80035dc <_printf_common+0xa4>
 800359e:	6823      	ldr	r3, [r4, #0]
 80035a0:	6922      	ldr	r2, [r4, #16]
 80035a2:	f003 0306 	and.w	r3, r3, #6
 80035a6:	2b04      	cmp	r3, #4
 80035a8:	bf02      	ittt	eq
 80035aa:	68e5      	ldreq	r5, [r4, #12]
 80035ac:	6833      	ldreq	r3, [r6, #0]
 80035ae:	1aed      	subeq	r5, r5, r3
 80035b0:	68a3      	ldr	r3, [r4, #8]
 80035b2:	bf0c      	ite	eq
 80035b4:	ea25 75e5 	biceq.w	r5, r5, r5, asr #31
 80035b8:	2500      	movne	r5, #0
 80035ba:	4293      	cmp	r3, r2
 80035bc:	bfc4      	itt	gt
 80035be:	1a9b      	subgt	r3, r3, r2
 80035c0:	18ed      	addgt	r5, r5, r3
 80035c2:	2600      	movs	r6, #0
 80035c4:	341a      	adds	r4, #26
 80035c6:	42b5      	cmp	r5, r6
 80035c8:	d11a      	bne.n	8003600 <_printf_common+0xc8>
 80035ca:	2000      	movs	r0, #0
 80035cc:	e008      	b.n	80035e0 <_printf_common+0xa8>
 80035ce:	2301      	movs	r3, #1
 80035d0:	4652      	mov	r2, sl
 80035d2:	4649      	mov	r1, r9
 80035d4:	4638      	mov	r0, r7
 80035d6:	47c0      	blx	r8
 80035d8:	3001      	adds	r0, #1
 80035da:	d103      	bne.n	80035e4 <_printf_common+0xac>
 80035dc:	f04f 30ff 	mov.w	r0, #4294967295	; 0xffffffff
 80035e0:	e8bd 87f0 	ldmia.w	sp!, {r4, r5, r6, r7, r8, r9, sl, pc}
 80035e4:	3501      	adds	r5, #1
 80035e6:	e7c6      	b.n	8003576 <_printf_common+0x3e>
 80035e8:	18e1      	adds	r1, r4, r3
 80035ea:	1c5a      	adds	r2, r3, #1
 80035ec:	2030      	movs	r0, #48	; 0x30
 80035ee:	f881 0043 	strb.w	r0, [r1, #67]	; 0x43
 80035f2:	4422      	add	r2, r4
 80035f4:	f894 1045 	ldrb.w	r1, [r4, #69]	; 0x45
 80035f8:	f882 1043 	strb.w	r1, [r2, #67]	; 0x43
 80035fc:	3302      	adds	r3, #2
 80035fe:	e7c7      	b.n	8003590 <_printf_common+0x58>
 8003600:	2301      	movs	r3, #1
 8003602:	4622      	mov	r2, r4
 8003604:	4649      	mov	r1, r9
 8003606:	4638      	mov	r0, r7
 8003608:	47c0      	blx	r8
 800360a:	3001      	adds	r0, #1
 800360c:	d0e6      	beq.n	80035dc <_printf_common+0xa4>
 800360e:	3601      	adds	r6, #1
 8003610:	e7d9      	b.n	80035c6 <_printf_common+0x8e>
	...

08003614 <_printf_i>:
 8003614:	e92d 47ff 	stmdb	sp!, {r0, r1, r2, r3, r4, r5, r6, r7, r8, r9, sl, lr}
 8003618:	7e0f      	ldrb	r7, [r1, #24]
 800361a:	9d0c      	ldr	r5, [sp, #48]	; 0x30
 800361c:	2f78      	cmp	r7, #120	; 0x78
 800361e:	4691      	mov	r9, r2
 8003620:	4680      	mov	r8, r0
 8003622:	460c      	mov	r4, r1
 8003624:	469a      	mov	sl, r3
 8003626:	f101 0243 	add.w	r2, r1, #67	; 0x43
 800362a:	d807      	bhi.n	800363c <_printf_i+0x28>
 800362c:	2f62      	cmp	r7, #98	; 0x62
 800362e:	d80a      	bhi.n	8003646 <_printf_i+0x32>
 8003630:	2f00      	cmp	r7, #0
 8003632:	f000 80d4 	beq.w	80037de <_printf_i+0x1ca>
 8003636:	2f58      	cmp	r7, #88	; 0x58
 8003638:	f000 80c0 	beq.w	80037bc <_printf_i+0x1a8>
 800363c:	f104 0542 	add.w	r5, r4, #66	; 0x42
 8003640:	f884 7042 	strb.w	r7, [r4, #66]	; 0x42
 8003644:	e03a      	b.n	80036bc <_printf_i+0xa8>
 8003646:	f1a7 0363 	sub.w	r3, r7, #99	; 0x63
 800364a:	2b15      	cmp	r3, #21
 800364c:	d8f6      	bhi.n	800363c <_printf_i+0x28>
 800364e:	a101      	add	r1, pc, #4	; (adr r1, 8003654 <_printf_i+0x40>)
 8003650:	f851 f023 	ldr.w	pc, [r1, r3, lsl #2]
 8003654:	080036ad 	.word	0x080036ad
 8003658:	080036c1 	.word	0x080036c1
 800365c:	0800363d 	.word	0x0800363d
 8003660:	0800363d 	.word	0x0800363d
 8003664:	0800363d 	.word	0x0800363d
 8003668:	0800363d 	.word	0x0800363d
 800366c:	080036c1 	.word	0x080036c1
 8003670:	0800363d 	.word	0x0800363d
 8003674:	0800363d 	.word	0x0800363d
 8003678:	0800363d 	.word	0x0800363d
 800367c:	0800363d 	.word	0x0800363d
 8003680:	080037c5 	.word	0x080037c5
 8003684:	080036ed 	.word	0x080036ed
 8003688:	0800377f 	.word	0x0800377f
 800368c:	0800363d 	.word	0x0800363d
 8003690:	0800363d 	.word	0x0800363d
 8003694:	080037e7 	.word	0x080037e7
 8003698:	0800363d 	.word	0x0800363d
 800369c:	080036ed 	.word	0x080036ed
 80036a0:	0800363d 	.word	0x0800363d
 80036a4:	0800363d 	.word	0x0800363d
 80036a8:	08003787 	.word	0x08003787
 80036ac:	682b      	ldr	r3, [r5, #0]
 80036ae:	1d1a      	adds	r2, r3, #4
 80036b0:	681b      	ldr	r3, [r3, #0]
 80036b2:	602a      	str	r2, [r5, #0]
 80036b4:	f104 0542 	add.w	r5, r4, #66	; 0x42
 80036b8:	f884 3042 	strb.w	r3, [r4, #66]	; 0x42
 80036bc:	2301      	movs	r3, #1
 80036be:	e09f      	b.n	8003800 <_printf_i+0x1ec>
 80036c0:	6820      	ldr	r0, [r4, #0]
 80036c2:	682b      	ldr	r3, [r5, #0]
 80036c4:	0607      	lsls	r7, r0, #24
 80036c6:	f103 0104 	add.w	r1, r3, #4
 80036ca:	6029      	str	r1, [r5, #0]
 80036cc:	d501      	bpl.n	80036d2 <_printf_i+0xbe>
 80036ce:	681e      	ldr	r6, [r3, #0]
 80036d0:	e003      	b.n	80036da <_printf_i+0xc6>
 80036d2:	0646      	lsls	r6, r0, #25
 80036d4:	d5fb      	bpl.n	80036ce <_printf_i+0xba>
 80036d6:	f9b3 6000 	ldrsh.w	r6, [r3]
 80036da:	2e00      	cmp	r6, #0
 80036dc:	da03      	bge.n	80036e6 <_printf_i+0xd2>
 80036de:	232d      	movs	r3, #45	; 0x2d
 80036e0:	4276      	negs	r6, r6
 80036e2:	f884 3043 	strb.w	r3, [r4, #67]	; 0x43
 80036e6:	485a      	ldr	r0, [pc, #360]	; (8003850 <_printf_i+0x23c>)
 80036e8:	230a      	movs	r3, #10
 80036ea:	e012      	b.n	8003712 <_printf_i+0xfe>
 80036ec:	682b      	ldr	r3, [r5, #0]
 80036ee:	6820      	ldr	r0, [r4, #0]
 80036f0:	1d19      	adds	r1, r3, #4
 80036f2:	6029      	str	r1, [r5, #0]
 80036f4:	0605      	lsls	r5, r0, #24
 80036f6:	d501      	bpl.n	80036fc <_printf_i+0xe8>
 80036f8:	681e      	ldr	r6, [r3, #0]
 80036fa:	e002      	b.n	8003702 <_printf_i+0xee>
 80036fc:	0641      	lsls	r1, r0, #25
 80036fe:	d5fb      	bpl.n	80036f8 <_printf_i+0xe4>
 8003700:	881e      	ldrh	r6, [r3, #0]
 8003702:	4853      	ldr	r0, [pc, #332]	; (8003850 <_printf_i+0x23c>)
 8003704:	2f6f      	cmp	r7, #111	; 0x6f
 8003706:	bf0c      	ite	eq
 8003708:	2308      	moveq	r3, #8
 800370a:	230a      	movne	r3, #10
 800370c:	2100      	movs	r1, #0
 800370e:	f884 1043 	strb.w	r1, [r4, #67]	; 0x43
 8003712:	6865      	ldr	r5, [r4, #4]
 8003714:	60a5      	str	r5, [r4, #8]
 8003716:	2d00      	cmp	r5, #0
 8003718:	bfa2      	ittt	ge
 800371a:	6821      	ldrge	r1, [r4, #0]
 800371c:	f021 0104 	bicge.w	r1, r1, #4
 8003720:	6021      	strge	r1, [r4, #0]
 8003722:	b90e      	cbnz	r6, 8003728 <_printf_i+0x114>
 8003724:	2d00      	cmp	r5, #0
 8003726:	d04b      	beq.n	80037c0 <_printf_i+0x1ac>
 8003728:	4615      	mov	r5, r2
 800372a:	fbb6 f1f3 	udiv	r1, r6, r3
 800372e:	fb03 6711 	mls	r7, r3, r1, r6
 8003732:	5dc7      	ldrb	r7, [r0, r7]
 8003734:	f805 7d01 	strb.w	r7, [r5, #-1]!
 8003738:	4637      	mov	r7, r6
 800373a:	42bb      	cmp	r3, r7
 800373c:	460e      	mov	r6, r1
 800373e:	d9f4      	bls.n	800372a <_printf_i+0x116>
 8003740:	2b08      	cmp	r3, #8
 8003742:	d10b      	bne.n	800375c <_printf_i+0x148>
 8003744:	6823      	ldr	r3, [r4, #0]
 8003746:	07de      	lsls	r6, r3, #31
 8003748:	d508      	bpl.n	800375c <_printf_i+0x148>
 800374a:	6923      	ldr	r3, [r4, #16]
 800374c:	6861      	ldr	r1, [r4, #4]
 800374e:	4299      	cmp	r1, r3
 8003750:	bfde      	ittt	le
 8003752:	2330      	movle	r3, #48	; 0x30
 8003754:	f805 3c01 	strble.w	r3, [r5, #-1]
 8003758:	f105 35ff 	addle.w	r5, r5, #4294967295	; 0xffffffff
 800375c:	1b52      	subs	r2, r2, r5
 800375e:	6122      	str	r2, [r4, #16]
 8003760:	f8cd a000 	str.w	sl, [sp]
 8003764:	464b      	mov	r3, r9
 8003766:	aa03      	add	r2, sp, #12
 8003768:	4621      	mov	r1, r4
 800376a:	4640      	mov	r0, r8
 800376c:	f7ff fee4 	bl	8003538 <_printf_common>
 8003770:	3001      	adds	r0, #1
 8003772:	d14a      	bne.n	800380a <_printf_i+0x1f6>
 8003774:	f04f 30ff 	mov.w	r0, #4294967295	; 0xffffffff
 8003778:	b004      	add	sp, #16
 800377a:	e8bd 87f0 	ldmia.w	sp!, {r4, r5, r6, r7, r8, r9, sl, pc}
 800377e:	6823      	ldr	r3, [r4, #0]
 8003780:	f043 0320 	orr.w	r3, r3, #32
 8003784:	6023      	str	r3, [r4, #0]
 8003786:	4833      	ldr	r0, [pc, #204]	; (8003854 <_printf_i+0x240>)
 8003788:	2778      	movs	r7, #120	; 0x78
 800378a:	f884 7045 	strb.w	r7, [r4, #69]	; 0x45
 800378e:	6823      	ldr	r3, [r4, #0]
 8003790:	6829      	ldr	r1, [r5, #0]
 8003792:	061f      	lsls	r7, r3, #24
 8003794:	f851 6b04 	ldr.w	r6, [r1], #4
 8003798:	d402      	bmi.n	80037a0 <_printf_i+0x18c>
 800379a:	065f      	lsls	r7, r3, #25
 800379c:	bf48      	it	mi
 800379e:	b2b6      	uxthmi	r6, r6
 80037a0:	07df      	lsls	r7, r3, #31
 80037a2:	bf48      	it	mi
 80037a4:	f043 0320 	orrmi.w	r3, r3, #32
 80037a8:	6029      	str	r1, [r5, #0]
 80037aa:	bf48      	it	mi
 80037ac:	6023      	strmi	r3, [r4, #0]
 80037ae:	b91e      	cbnz	r6, 80037b8 <_printf_i+0x1a4>
 80037b0:	6823      	ldr	r3, [r4, #0]
 80037b2:	f023 0320 	bic.w	r3, r3, #32
 80037b6:	6023      	str	r3, [r4, #0]
 80037b8:	2310      	movs	r3, #16
 80037ba:	e7a7      	b.n	800370c <_printf_i+0xf8>
 80037bc:	4824      	ldr	r0, [pc, #144]	; (8003850 <_printf_i+0x23c>)
 80037be:	e7e4      	b.n	800378a <_printf_i+0x176>
 80037c0:	4615      	mov	r5, r2
 80037c2:	e7bd      	b.n	8003740 <_printf_i+0x12c>
 80037c4:	682b      	ldr	r3, [r5, #0]
 80037c6:	6826      	ldr	r6, [r4, #0]
 80037c8:	6961      	ldr	r1, [r4, #20]
 80037ca:	1d18      	adds	r0, r3, #4
 80037cc:	6028      	str	r0, [r5, #0]
 80037ce:	0635      	lsls	r5, r6, #24
 80037d0:	681b      	ldr	r3, [r3, #0]
 80037d2:	d501      	bpl.n	80037d8 <_printf_i+0x1c4>
 80037d4:	6019      	str	r1, [r3, #0]
 80037d6:	e002      	b.n	80037de <_printf_i+0x1ca>
 80037d8:	0670      	lsls	r0, r6, #25
 80037da:	d5fb      	bpl.n	80037d4 <_printf_i+0x1c0>
 80037dc:	8019      	strh	r1, [r3, #0]
 80037de:	2300      	movs	r3, #0
 80037e0:	6123      	str	r3, [r4, #16]
 80037e2:	4615      	mov	r5, r2
 80037e4:	e7bc      	b.n	8003760 <_printf_i+0x14c>
 80037e6:	682b      	ldr	r3, [r5, #0]
 80037e8:	1d1a      	adds	r2, r3, #4
 80037ea:	602a      	str	r2, [r5, #0]
 80037ec:	681d      	ldr	r5, [r3, #0]
 80037ee:	6862      	ldr	r2, [r4, #4]
 80037f0:	2100      	movs	r1, #0
 80037f2:	4628      	mov	r0, r5
 80037f4:	f7fc fcf4 	bl	80001e0 <memchr>
 80037f8:	b108      	cbz	r0, 80037fe <_printf_i+0x1ea>
 80037fa:	1b40      	subs	r0, r0, r5
 80037fc:	6060      	str	r0, [r4, #4]
 80037fe:	6863      	ldr	r3, [r4, #4]
 8003800:	6123      	str	r3, [r4, #16]
 8003802:	2300      	movs	r3, #0
 8003804:	f884 3043 	strb.w	r3, [r4, #67]	; 0x43
 8003808:	e7aa      	b.n	8003760 <_printf_i+0x14c>
 800380a:	6923      	ldr	r3, [r4, #16]
 800380c:	462a      	mov	r2, r5
 800380e:	4649      	mov	r1, r9
 8003810:	4640      	mov	r0, r8
 8003812:	47d0      	blx	sl
 8003814:	3001      	adds	r0, #1
 8003816:	d0ad      	beq.n	8003774 <_printf_i+0x160>
 8003818:	6823      	ldr	r3, [r4, #0]
 800381a:	079b      	lsls	r3, r3, #30
 800381c:	d413      	bmi.n	8003846 <_printf_i+0x232>
 800381e:	68e0      	ldr	r0, [r4, #12]
 8003820:	9b03      	ldr	r3, [sp, #12]
 8003822:	4298      	cmp	r0, r3
 8003824:	bfb8      	it	lt
 8003826:	4618      	movlt	r0, r3
 8003828:	e7a6      	b.n	8003778 <_printf_i+0x164>
 800382a:	2301      	movs	r3, #1
 800382c:	4632      	mov	r2, r6
 800382e:	4649      	mov	r1, r9
 8003830:	4640      	mov	r0, r8
 8003832:	47d0      	blx	sl
 8003834:	3001      	adds	r0, #1
 8003836:	d09d      	beq.n	8003774 <_printf_i+0x160>
 8003838:	3501      	adds	r5, #1
 800383a:	68e3      	ldr	r3, [r4, #12]
 800383c:	9903      	ldr	r1, [sp, #12]
 800383e:	1a5b      	subs	r3, r3, r1
 8003840:	42ab      	cmp	r3, r5
 8003842:	dcf2      	bgt.n	800382a <_printf_i+0x216>
 8003844:	e7eb      	b.n	800381e <_printf_i+0x20a>
 8003846:	2500      	movs	r5, #0
 8003848:	f104 0619 	add.w	r6, r4, #25
 800384c:	e7f5      	b.n	800383a <_printf_i+0x226>
 800384e:	bf00      	nop
 8003850:	0800398d 	.word	0x0800398d
 8003854:	0800399e 	.word	0x0800399e

08003858 <memmove>:
 8003858:	4288      	cmp	r0, r1
 800385a:	b510      	push	{r4, lr}
 800385c:	eb01 0402 	add.w	r4, r1, r2
 8003860:	d902      	bls.n	8003868 <memmove+0x10>
 8003862:	4284      	cmp	r4, r0
 8003864:	4623      	mov	r3, r4
 8003866:	d807      	bhi.n	8003878 <memmove+0x20>
 8003868:	1e43      	subs	r3, r0, #1
 800386a:	42a1      	cmp	r1, r4
 800386c:	d008      	beq.n	8003880 <memmove+0x28>
 800386e:	f811 2b01 	ldrb.w	r2, [r1], #1
 8003872:	f803 2f01 	strb.w	r2, [r3, #1]!
 8003876:	e7f8      	b.n	800386a <memmove+0x12>
 8003878:	4402      	add	r2, r0
 800387a:	4601      	mov	r1, r0
 800387c:	428a      	cmp	r2, r1
 800387e:	d100      	bne.n	8003882 <memmove+0x2a>
 8003880:	bd10      	pop	{r4, pc}
 8003882:	f813 4d01 	ldrb.w	r4, [r3, #-1]!
 8003886:	f802 4d01 	strb.w	r4, [r2, #-1]!
 800388a:	e7f7      	b.n	800387c <memmove+0x24>

0800388c <_sbrk_r>:
 800388c:	b538      	push	{r3, r4, r5, lr}
 800388e:	4d06      	ldr	r5, [pc, #24]	; (80038a8 <_sbrk_r+0x1c>)
 8003890:	2300      	movs	r3, #0
 8003892:	4604      	mov	r4, r0
 8003894:	4608      	mov	r0, r1
 8003896:	602b      	str	r3, [r5, #0]
 8003898:	f7fd f9c0 	bl	8000c1c <_sbrk>
 800389c:	1c43      	adds	r3, r0, #1
 800389e:	d102      	bne.n	80038a6 <_sbrk_r+0x1a>
 80038a0:	682b      	ldr	r3, [r5, #0]
 80038a2:	b103      	cbz	r3, 80038a6 <_sbrk_r+0x1a>
 80038a4:	6023      	str	r3, [r4, #0]
 80038a6:	bd38      	pop	{r3, r4, r5, pc}
 80038a8:	20000258 	.word	0x20000258

080038ac <memcpy>:
 80038ac:	440a      	add	r2, r1
 80038ae:	4291      	cmp	r1, r2
 80038b0:	f100 33ff 	add.w	r3, r0, #4294967295	; 0xffffffff
 80038b4:	d100      	bne.n	80038b8 <memcpy+0xc>
 80038b6:	4770      	bx	lr
 80038b8:	b510      	push	{r4, lr}
 80038ba:	f811 4b01 	ldrb.w	r4, [r1], #1
 80038be:	f803 4f01 	strb.w	r4, [r3, #1]!
 80038c2:	4291      	cmp	r1, r2
 80038c4:	d1f9      	bne.n	80038ba <memcpy+0xe>
 80038c6:	bd10      	pop	{r4, pc}

080038c8 <_realloc_r>:
 80038c8:	e92d 41f0 	stmdb	sp!, {r4, r5, r6, r7, r8, lr}
 80038cc:	4680      	mov	r8, r0
 80038ce:	4614      	mov	r4, r2
 80038d0:	460e      	mov	r6, r1
 80038d2:	b921      	cbnz	r1, 80038de <_realloc_r+0x16>
 80038d4:	e8bd 41f0 	ldmia.w	sp!, {r4, r5, r6, r7, r8, lr}
 80038d8:	4611      	mov	r1, r2
 80038da:	f7ff bc49 	b.w	8003170 <_malloc_r>
 80038de:	b92a      	cbnz	r2, 80038ec <_realloc_r+0x24>
 80038e0:	f7ff fbda 	bl	8003098 <_free_r>
 80038e4:	4625      	mov	r5, r4
 80038e6:	4628      	mov	r0, r5
 80038e8:	e8bd 81f0 	ldmia.w	sp!, {r4, r5, r6, r7, r8, pc}
 80038ec:	f000 f81b 	bl	8003926 <_malloc_usable_size_r>
 80038f0:	4284      	cmp	r4, r0
 80038f2:	4607      	mov	r7, r0
 80038f4:	d802      	bhi.n	80038fc <_realloc_r+0x34>
 80038f6:	ebb4 0f50 	cmp.w	r4, r0, lsr #1
 80038fa:	d812      	bhi.n	8003922 <_realloc_r+0x5a>
 80038fc:	4621      	mov	r1, r4
 80038fe:	4640      	mov	r0, r8
 8003900:	f7ff fc36 	bl	8003170 <_malloc_r>
 8003904:	4605      	mov	r5, r0
 8003906:	2800      	cmp	r0, #0
 8003908:	d0ed      	beq.n	80038e6 <_realloc_r+0x1e>
 800390a:	42bc      	cmp	r4, r7
 800390c:	4622      	mov	r2, r4
 800390e:	4631      	mov	r1, r6
 8003910:	bf28      	it	cs
 8003912:	463a      	movcs	r2, r7
 8003914:	f7ff ffca 	bl	80038ac <memcpy>
 8003918:	4631      	mov	r1, r6
 800391a:	4640      	mov	r0, r8
 800391c:	f7ff fbbc 	bl	8003098 <_free_r>
 8003920:	e7e1      	b.n	80038e6 <_realloc_r+0x1e>
 8003922:	4635      	mov	r5, r6
 8003924:	e7df      	b.n	80038e6 <_realloc_r+0x1e>

08003926 <_malloc_usable_size_r>:
 8003926:	f851 3c04 	ldr.w	r3, [r1, #-4]
 800392a:	1f18      	subs	r0, r3, #4
 800392c:	2b00      	cmp	r3, #0
 800392e:	bfbc      	itt	lt
 8003930:	580b      	ldrlt	r3, [r1, r0]
 8003932:	18c0      	addlt	r0, r0, r3
 8003934:	4770      	bx	lr
	...

08003938 <_init>:
 8003938:	b5f8      	push	{r3, r4, r5, r6, r7, lr}
 800393a:	bf00      	nop
 800393c:	bcf8      	pop	{r3, r4, r5, r6, r7}
 800393e:	bc08      	pop	{r3}
 8003940:	469e      	mov	lr, r3
 8003942:	4770      	bx	lr

08003944 <_fini>:
 8003944:	b5f8      	push	{r3, r4, r5, r6, r7, lr}
 8003946:	bf00      	nop
 8003948:	bcf8      	pop	{r3, r4, r5, r6, r7}
 800394a:	bc08      	pop	{r3}
 800394c:	469e      	mov	lr, r3
 800394e:	4770      	bx	lr
